---
triple:          'arm64-apple-darwin'
binary-path:     '/Users/danildenha/Documents/myNeuralNetworks/Source/Number_Recognition/NeuralNetwork'
relocations:
  - { offsetInCU: 0x4CB1, offset: 0x4CB1, size: 0x8, addend: 0x0, symName: __ZNSt3__17advanceB7v160006IPdmmvEEvRT_T0_, symObjAddr: 0x3FD0, symBinAddr: 0x100005870, symSize: 0x50 }
  - { offsetInCU: 0xA0FA, offset: 0xA0FA, size: 0x8, addend: 0x0, symName: __ZNSt3__17advanceB7v160006IPmmmvEEvRT_T0_, symObjAddr: 0x60CC, symBinAddr: 0x10000796C, symSize: 0x50 }
  - { offsetInCU: 0xC2F8, offset: 0xC2F8, size: 0x8, addend: 0x0, symName: __ZNSt3__124__put_character_sequenceB7v160006IcNS_11char_traitsIcEEEERNS_13basic_ostreamIT_T0_EES7_PKS4_m, symObjAddr: 0xBD4C, symBinAddr: 0x10000D5EC, symSize: 0x1EC }
  - { offsetInCU: 0xDE70, offset: 0xDE70, size: 0x8, addend: 0x0, symName: __ZNSt3__18generateB7v160006INS_11__wrap_iterIPdEEPFdvEEEvT_S6_T0_, symObjAddr: 0x19C, symBinAddr: 0x100001A3C, symSize: 0x68 }
  - { offsetInCU: 0xDEC6, offset: 0xDEC6, size: 0x8, addend: 0x0, symName: __ZNSt3__113inner_productB7v160006INS_11__wrap_iterIPdEES3_dEET1_T_S5_T0_S4_, symObjAddr: 0x3C8, symBinAddr: 0x100001C68, symSize: 0x90 }
  - { offsetInCU: 0xDF37, offset: 0xDF37, size: 0x8, addend: 0x0, symName: __ZNSt3__14endlB7v160006IcNS_11char_traitsIcEEEERNS_13basic_ostreamIT_T0_EES7_, symObjAddr: 0x1064, symBinAddr: 0x100002904, symSize: 0x58 }
  - { offsetInCU: 0xDF77, offset: 0xDF77, size: 0x8, addend: 0x0, symName: __ZNSt3__1lsB7v160006INS_11char_traitsIcEEEERNS_13basic_ostreamIcT_EES6_PKc, symObjAddr: 0x10E4, symBinAddr: 0x100002984, symSize: 0x48 }
  - { offsetInCU: 0xDFBD, offset: 0xDFBD, size: 0x8, addend: 0x0, symName: __ZNSt3__1neB7v160006IPdEEbRKNS_11__wrap_iterIT_EES6_, symObjAddr: 0x112C, symBinAddr: 0x1000029CC, symSize: 0x34 }
  - { offsetInCU: 0xE000, offset: 0xE000, size: 0x8, addend: 0x0, symName: __ZNSt3__1eqB7v160006IPdEEbRKNS_11__wrap_iterIT_EES6_, symObjAddr: 0x1A8C, symBinAddr: 0x10000332C, symSize: 0x48 }
  - { offsetInCU: 0xE043, offset: 0xE043, size: 0x8, addend: 0x0, symName: __ZNSt3__119__debug_db_insert_cB7v160006INS_6vectorIdNS_9allocatorIdEEEEEEvPT_, symObjAddr: 0x1B8C, symBinAddr: 0x10000342C, symSize: 0x10 }
  - { offsetInCU: 0xE074, offset: 0xE074, size: 0x8, addend: 0x0, symName: __ZNSt3__118__debug_db_erase_cB7v160006INS_6vectorIdNS_9allocatorIdEEEEEEvPT_, symObjAddr: 0x1E50, symBinAddr: 0x1000036F0, symSize: 0x10 }
  - { offsetInCU: 0xE0A5, offset: 0xE0A5, size: 0x8, addend: 0x0, symName: __ZNSt3__112__to_addressB7v160006IdEEPT_S2_, symObjAddr: 0x1F6C, symBinAddr: 0x10000380C, symSize: 0x14 }
  - { offsetInCU: 0xE0DA, offset: 0xE0DA, size: 0x8, addend: 0x0, symName: __ZNSt3__119__libcpp_deallocateB7v160006EPvmm, symObjAddr: 0x208C, symBinAddr: 0x10000392C, symSize: 0x60 }
  - { offsetInCU: 0xE13F, offset: 0xE13F, size: 0x8, addend: 0x0, symName: __ZNSt3__124__is_overaligned_for_newB7v160006Em, symObjAddr: 0x20EC, symBinAddr: 0x10000398C, symSize: 0x20 }
  - { offsetInCU: 0xE16D, offset: 0xE16D, size: 0x8, addend: 0x0, symName: __ZNSt3__127__do_deallocate_handle_sizeB7v160006IJSt11align_val_tEEEvPvmDpT_, symObjAddr: 0x210C, symBinAddr: 0x1000039AC, symSize: 0x30 }
  - { offsetInCU: 0xE1C0, offset: 0xE1C0, size: 0x8, addend: 0x0, symName: __ZNSt3__127__do_deallocate_handle_sizeB7v160006IJEEEvPvmDpT_, symObjAddr: 0x213C, symBinAddr: 0x1000039DC, symSize: 0x28 }
  - { offsetInCU: 0xE1FE, offset: 0xE1FE, size: 0x8, addend: 0x0, symName: __ZNSt3__124__libcpp_operator_deleteB7v160006IJPvSt11align_val_tEEEvDpT_, symObjAddr: 0x2164, symBinAddr: 0x100003A04, symSize: 0x2C }
  - { offsetInCU: 0xE247, offset: 0xE247, size: 0x8, addend: 0x0, symName: __ZNSt3__124__libcpp_operator_deleteB7v160006IJPvEEEvDpT_, symObjAddr: 0x2190, symBinAddr: 0x100003A30, symSize: 0x24 }
  - { offsetInCU: 0xE27C, offset: 0xE27C, size: 0x8, addend: 0x0, symName: __ZNSt3__13maxB7v160006ImEERKT_S3_S3_, symObjAddr: 0x2960, symBinAddr: 0x100004200, symSize: 0x2C }
  - { offsetInCU: 0xE2BF, offset: 0xE2BF, size: 0x8, addend: 0x0, symName: __ZNSt3__13minB7v160006ImEERKT_S3_S3_, symObjAddr: 0x298C, symBinAddr: 0x10000422C, symSize: 0x2C }
  - { offsetInCU: 0xE4EC, offset: 0xE4EC, size: 0x8, addend: 0x0, symName: __ZNSt3__13minB7v160006ImNS_6__lessImmEEEERKT_S5_S5_T0_, symObjAddr: 0x2A18, symBinAddr: 0x1000042B8, symSize: 0x54 }
  - { offsetInCU: 0xE581, offset: 0xE581, size: 0x8, addend: 0x0, symName: __ZNSt3__120__throw_length_errorB7v160006EPKc, symObjAddr: 0x2AF4, symBinAddr: 0x100004394, symSize: 0x64 }
  - { offsetInCU: 0xE5A9, offset: 0xE5A9, size: 0x8, addend: 0x0, symName: __ZNSt3__13maxB7v160006ImNS_6__lessImmEEEERKT_S5_S5_T0_, symObjAddr: 0x2BD8, symBinAddr: 0x100004478, symSize: 0x54 }
  - { offsetInCU: 0xE603, offset: 0xE603, size: 0x8, addend: 0x0, symName: __ZNSt3__119__allocate_at_leastB7v160006INS_9allocatorIdEEEENS_19__allocation_resultINS_16allocator_traitsIT_E7pointerEEERS5_m, symObjAddr: 0x2D3C, symBinAddr: 0x1000045DC, symSize: 0x40 }
  - { offsetInCU: 0xE646, offset: 0xE646, size: 0x8, addend: 0x0, symName: __ZNSt3__117__libcpp_allocateB7v160006Emm, symObjAddr: 0x2EC0, symBinAddr: 0x100004760, symSize: 0x60 }
  - { offsetInCU: 0xE6A0, offset: 0xE6A0, size: 0x8, addend: 0x0, symName: __ZNSt3__121__libcpp_operator_newB7v160006IJmSt11align_val_tEEEPvDpT_, symObjAddr: 0x2F20, symBinAddr: 0x1000047C0, symSize: 0x2C }
  - { offsetInCU: 0xE6ED, offset: 0xE6ED, size: 0x8, addend: 0x0, symName: __ZNSt3__121__libcpp_operator_newB7v160006IJmEEEPvDpT_, symObjAddr: 0x2F4C, symBinAddr: 0x1000047EC, symSize: 0x24 }
  - { offsetInCU: 0xE726, offset: 0xE726, size: 0x8, addend: 0x0, symName: __ZNSt3__142__uninitialized_allocator_move_if_noexceptB7v160006INS_9allocatorIdEENS_16reverse_iteratorIPdEES5_dvEET1_RT_T0_S9_S6_, symObjAddr: 0x30A0, symBinAddr: 0x100004940, symSize: 0x78 }
  - { offsetInCU: 0xE7A3, offset: 0xE7A3, size: 0x8, addend: 0x0, symName: __ZNSt3__14swapB7v160006IPdEENS_9enable_ifIXaasr21is_move_constructibleIT_EE5valuesr18is_move_assignableIS3_EE5valueEvE4typeERS3_S6_, symObjAddr: 0x3164, symBinAddr: 0x100004A04, symSize: 0x3C }
  - { offsetInCU: 0xE7F4, offset: 0xE7F4, size: 0x8, addend: 0x0, symName: __ZNSt3__125__debug_db_invalidate_allB7v160006INS_6vectorIdNS_9allocatorIdEEEEEEvPT_, symObjAddr: 0x324C, symBinAddr: 0x100004AEC, symSize: 0x10 }
  - { offsetInCU: 0xE825, offset: 0xE825, size: 0x8, addend: 0x0, symName: __ZNSt3__14moveB7v160006INS_16reverse_iteratorIPdEES3_EET0_T_S5_S4_, symObjAddr: 0x325C, symBinAddr: 0x100004AFC, symSize: 0x78 }
  - { offsetInCU: 0xE87F, offset: 0xE87F, size: 0x8, addend: 0x0, symName: __ZNSt3__16__moveB7v160006INS_17_ClassicAlgPolicyENS_16reverse_iteratorIPdEES4_S4_EENS_4pairIT0_T2_EES6_T1_S7_, symObjAddr: 0x32D4, symBinAddr: 0x100004B74, symSize: 0x64 }
  - { offsetInCU: 0xE8EB, offset: 0xE8EB, size: 0x8, addend: 0x0, symName: __ZNSt3__123__dispatch_copy_or_moveB7v160006INS_17_ClassicAlgPolicyENS_11__move_loopIS1_EENS_14__move_trivialENS_16reverse_iteratorIPdEES7_S7_EENS_4pairIT2_T4_EES9_T3_SA_, symObjAddr: 0x3338, symBinAddr: 0x100004BD8, symSize: 0x64 }
  - { offsetInCU: 0xE969, offset: 0xE969, size: 0x8, addend: 0x0, symName: __ZNSt3__121__unwrap_and_dispatchB7v160006INS_10__overloadINS_11__move_loopINS_17_ClassicAlgPolicyEEENS_14__move_trivialEEENS_16reverse_iteratorIPdEES9_S9_Li0EEENS_4pairIT0_T2_EESB_T1_SC_, symObjAddr: 0x339C, symBinAddr: 0x100004C3C, symSize: 0x12C }
  - { offsetInCU: 0xE9F9, offset: 0xE9F9, size: 0x8, addend: 0x0, symName: __ZNSt3__114__unwrap_rangeB7v160006INS_16reverse_iteratorIPdEES3_EENS_4pairIT0_S5_EET_S7_, symObjAddr: 0x34C8, symBinAddr: 0x100004D68, symSize: 0x84 }
  - { offsetInCU: 0xEB74, offset: 0xEB74, size: 0x8, addend: 0x0, symName: __ZNSt3__113__unwrap_iterB7v160006INS_16reverse_iteratorIPdEENS_18__unwrap_iter_implIS3_Lb0EEELi0EEEDTclsrT0_8__unwrapclsr3stdE7declvalIT_EEEES7_, symObjAddr: 0x35EC, symBinAddr: 0x100004E8C, symSize: 0x44 }
  - { offsetInCU: 0xEBB8, offset: 0xEBB8, size: 0x8, addend: 0x0, symName: __ZNSt3__19make_pairB7v160006INS_16reverse_iteratorIPdEES3_EENS_4pairINS_18__unwrap_ref_decayIT_E4typeENS5_IT0_E4typeEEEOS6_OS9_, symObjAddr: 0x3630, symBinAddr: 0x100004ED0, symSize: 0x38 }
  - { offsetInCU: 0xEC07, offset: 0xEC07, size: 0x8, addend: 0x0, symName: __ZNSt3__114__rewrap_rangeB7v160006INS_16reverse_iteratorIPdEES3_EET_S4_T0_, symObjAddr: 0x3668, symBinAddr: 0x100004F08, symSize: 0x5C }
  - { offsetInCU: 0xEC53, offset: 0xEC53, size: 0x8, addend: 0x0, symName: __ZNSt3__113__rewrap_iterB7v160006INS_16reverse_iteratorIPdEES3_NS_18__unwrap_iter_implIS3_Lb0EEEEET_S6_T0_, symObjAddr: 0x36C4, symBinAddr: 0x100004F64, symSize: 0x74 }
  - { offsetInCU: 0xECA8, offset: 0xECA8, size: 0x8, addend: 0x0, symName: __ZNSt3__1neB7v160006IPdS1_EEbRKNS_16reverse_iteratorIT_EERKNS2_IT0_EE, symObjAddr: 0x3738, symBinAddr: 0x100004FD8, symSize: 0x48 }
  - { offsetInCU: 0xEDA6, offset: 0xEDA6, size: 0x8, addend: 0x0, symName: __ZNSt3__18distanceB7v160006IPdEENS_15iterator_traitsIT_E15difference_typeES3_S3_, symObjAddr: 0x3FA4, symBinAddr: 0x100005844, symSize: 0x2C }
  - { offsetInCU: 0xEDE9, offset: 0xEDE9, size: 0x8, addend: 0x0, symName: __ZNSt3__14copyB7v160006IPdS1_EET0_T_S3_S2_, symObjAddr: 0x4020, symBinAddr: 0x1000058C0, symSize: 0x40 }
  - { offsetInCU: 0xEE43, offset: 0xEE43, size: 0x8, addend: 0x0, symName: __ZNSt3__110__distanceB7v160006IPdEENS_15iterator_traitsIT_E15difference_typeES3_S3_NS_26random_access_iterator_tagE, symObjAddr: 0x4224, symBinAddr: 0x100005AC4, symSize: 0x28 }
  - { offsetInCU: 0xEE90, offset: 0xEE90, size: 0x8, addend: 0x0, symName: __ZNSt3__121__convert_to_integralB7v160006Em, symObjAddr: 0x424C, symBinAddr: 0x100005AEC, symSize: 0x14 }
  - { offsetInCU: 0xEEBC, offset: 0xEEBC, size: 0x8, addend: 0x0, symName: __ZNSt3__19__advanceB7v160006IPdEEvRT_NS_15iterator_traitsIS2_E15difference_typeENS_26random_access_iterator_tagE, symObjAddr: 0x4260, symBinAddr: 0x100005B00, symSize: 0x28 }
  - { offsetInCU: 0xEF05, offset: 0xEF05, size: 0x8, addend: 0x0, symName: __ZNSt3__16__copyB7v160006INS_17_ClassicAlgPolicyEPdS2_S2_EENS_4pairIT0_T2_EES4_T1_S5_, symObjAddr: 0x4288, symBinAddr: 0x100005B28, symSize: 0x44 }
  - { offsetInCU: 0xEF71, offset: 0xEF71, size: 0x8, addend: 0x0, symName: __ZNSt3__123__dispatch_copy_or_moveB7v160006INS_17_ClassicAlgPolicyENS_11__copy_loopIS1_EENS_14__copy_trivialEPdS5_S5_EENS_4pairIT2_T4_EES7_T3_S8_, symObjAddr: 0x42CC, symBinAddr: 0x100005B6C, symSize: 0x44 }
  - { offsetInCU: 0xEFEF, offset: 0xEFEF, size: 0x8, addend: 0x0, symName: __ZNSt3__121__unwrap_and_dispatchB7v160006INS_10__overloadINS_11__copy_loopINS_17_ClassicAlgPolicyEEENS_14__copy_trivialEEEPdS7_S7_Li0EEENS_4pairIT0_T2_EES9_T1_SA_, symObjAddr: 0x4310, symBinAddr: 0x100005BB0, symSize: 0xB4 }
  - { offsetInCU: 0xF07D, offset: 0xF07D, size: 0x8, addend: 0x0, symName: __ZNSt3__114__unwrap_rangeB7v160006IPdS1_EENS_4pairIT0_S3_EET_S5_, symObjAddr: 0x43C4, symBinAddr: 0x100005C64, symSize: 0x60 }
  - { offsetInCU: 0xF24E, offset: 0xF24E, size: 0x8, addend: 0x0, symName: __ZNSt3__113__unwrap_iterB7v160006IPdNS_18__unwrap_iter_implIS1_Lb1EEELi0EEEDTclsrT0_8__unwrapclsr3stdE7declvalIT_EEEES5_, symObjAddr: 0x446C, symBinAddr: 0x100005D0C, symSize: 0x24 }
  - { offsetInCU: 0xF292, offset: 0xF292, size: 0x8, addend: 0x0, symName: __ZNSt3__19make_pairB7v160006IPdS1_EENS_4pairINS_18__unwrap_ref_decayIT_E4typeENS3_IT0_E4typeEEEOS4_OS7_, symObjAddr: 0x4490, symBinAddr: 0x100005D30, symSize: 0x38 }
  - { offsetInCU: 0xF2E1, offset: 0xF2E1, size: 0x8, addend: 0x0, symName: __ZNSt3__114__rewrap_rangeB7v160006IPdS1_EET_S2_T0_, symObjAddr: 0x44C8, symBinAddr: 0x100005D68, symSize: 0x2C }
  - { offsetInCU: 0xF32D, offset: 0xF32D, size: 0x8, addend: 0x0, symName: __ZNSt3__113__rewrap_iterB7v160006IPdS1_NS_18__unwrap_iter_implIS1_Lb1EEEEET_S4_T0_, symObjAddr: 0x44F4, symBinAddr: 0x100005D94, symSize: 0x3C }
  - { offsetInCU: 0xF382, offset: 0xF382, size: 0x8, addend: 0x0, symName: __ZNSt3__119__copy_trivial_implB7v160006IddEENS_4pairIPT_PT0_EES3_S3_S5_, symObjAddr: 0x4530, symBinAddr: 0x100005DD0, symSize: 0x84 }
  - { offsetInCU: 0xF3EA, offset: 0xF3EA, size: 0x8, addend: 0x0, symName: __ZNSt3__19make_pairB7v160006IRPdS1_EENS_4pairINS_18__unwrap_ref_decayIT_E4typeENS4_IT0_E4typeEEEOS5_OS8_, symObjAddr: 0x45B4, symBinAddr: 0x100005E54, symSize: 0x38 }
  - { offsetInCU: 0xF48C, offset: 0xF48C, size: 0x8, addend: 0x0, symName: __ZNSt3__130__uninitialized_allocator_copyB7v160006INS_9allocatorIdEEPdS3_S3_EET2_RT_T0_T1_S4_, symObjAddr: 0x4740, symBinAddr: 0x100005FE0, symSize: 0xF4 }
  - { offsetInCU: 0xF52A, offset: 0xF52A, size: 0x8, addend: 0x0, symName: __ZNSt3__122__make_exception_guardB7v160006INS_29_AllocatorDestroyRangeReverseINS_9allocatorIdEEPdEEEENS_28__exception_guard_exceptionsIT_EES7_, symObjAddr: 0x4834, symBinAddr: 0x1000060D4, symSize: 0x4C }
  - { offsetInCU: 0xF560, offset: 0xF560, size: 0x8, addend: 0x0, symName: __ZNSt3__119__allocator_destroyB7v160006INS_9allocatorIdEENS_16reverse_iteratorIPdEES5_EEvRT_T0_T1_, symObjAddr: 0x4ABC, symBinAddr: 0x10000635C, symSize: 0x70 }
  - { offsetInCU: 0xF5C3, offset: 0xF5C3, size: 0x8, addend: 0x0, symName: __ZNSt3__112__to_addressB7v160006INS_16reverse_iteratorIPdEEvEENS_5decayIDTclsr19__to_address_helperIT_EE6__callclsr3stdE7declvalIRKS5_EEEEE4typeES7_, symObjAddr: 0x4B2C, symBinAddr: 0x1000063CC, symSize: 0x24 }
  - { offsetInCU: 0xF622, offset: 0xF622, size: 0x8, addend: 0x0, symName: __ZNSt3__119__debug_db_insert_cB7v160006INS_6vectorImNS_9allocatorImEEEEEEvPT_, symObjAddr: 0x4C8C, symBinAddr: 0x10000652C, symSize: 0x10 }
  - { offsetInCU: 0xF653, offset: 0xF653, size: 0x8, addend: 0x0, symName: __ZNSt3__119__debug_db_insert_cB7v160006INS_6vectorINS1_I10PerceptronNS_9allocatorIS2_EEEENS3_IS5_EEEEEEvPT_, symObjAddr: 0x4DF8, symBinAddr: 0x100006698, symSize: 0x10 }
  - { offsetInCU: 0xF684, offset: 0xF684, size: 0x8, addend: 0x0, symName: __ZNSt3__119__debug_db_insert_cB7v160006INS_6vectorINS1_IdNS_9allocatorIdEEEENS2_IS4_EEEEEEvPT_, symObjAddr: 0x4F64, symBinAddr: 0x100006804, symSize: 0x10 }
  - { offsetInCU: 0xF6B5, offset: 0xF6B5, size: 0x8, addend: 0x0, symName: __ZNSt3__118__debug_db_erase_cB7v160006INS_6vectorImNS_9allocatorImEEEEEEvPT_, symObjAddr: 0x5228, symBinAddr: 0x100006AC8, symSize: 0x10 }
  - { offsetInCU: 0xF6E6, offset: 0xF6E6, size: 0x8, addend: 0x0, symName: __ZNSt3__112__to_addressB7v160006ImEEPT_S2_, symObjAddr: 0x5344, symBinAddr: 0x100006BE4, symSize: 0x14 }
  - { offsetInCU: 0xF71B, offset: 0xF71B, size: 0x8, addend: 0x0, symName: __ZNSt3__118__debug_db_erase_cB7v160006INS_6vectorINS1_I10PerceptronNS_9allocatorIS2_EEEENS3_IS5_EEEEEEvPT_, symObjAddr: 0x5704, symBinAddr: 0x100006FA4, symSize: 0x10 }
  - { offsetInCU: 0xF74C, offset: 0xF74C, size: 0x8, addend: 0x0, symName: __ZNSt3__112__to_addressB7v160006INS_6vectorI10PerceptronNS_9allocatorIS2_EEEEEEPT_S7_, symObjAddr: 0x5820, symBinAddr: 0x1000070C0, symSize: 0x14 }
  - { offsetInCU: 0xF781, offset: 0xF781, size: 0x8, addend: 0x0, symName: __ZNSt3__118__debug_db_erase_cB7v160006INS_6vectorINS1_IdNS_9allocatorIdEEEENS2_IS4_EEEEEEvPT_, symObjAddr: 0x5BF8, symBinAddr: 0x100007498, symSize: 0x10 }
  - { offsetInCU: 0xF7B2, offset: 0xF7B2, size: 0x8, addend: 0x0, symName: __ZNSt3__112__to_addressB7v160006INS_6vectorIdNS_9allocatorIdEEEEEEPT_S6_, symObjAddr: 0x5D14, symBinAddr: 0x1000075B4, symSize: 0x14 }
  - { offsetInCU: 0xF7E7, offset: 0xF7E7, size: 0x8, addend: 0x0, symName: __ZNSt3__18distanceB7v160006IPmEENS_15iterator_traitsIT_E15difference_typeES3_S3_, symObjAddr: 0x60A0, symBinAddr: 0x100007940, symSize: 0x2C }
  - { offsetInCU: 0xF82A, offset: 0xF82A, size: 0x8, addend: 0x0, symName: __ZNSt3__14copyB7v160006IPmS1_EET0_T_S3_S2_, symObjAddr: 0x611C, symBinAddr: 0x1000079BC, symSize: 0x40 }
  - { offsetInCU: 0xF884, offset: 0xF884, size: 0x8, addend: 0x0, symName: __ZNSt3__125__debug_db_invalidate_allB7v160006INS_6vectorImNS_9allocatorImEEEEEEvPT_, symObjAddr: 0x6434, symBinAddr: 0x100007CD4, symSize: 0x10 }
  - { offsetInCU: 0xF8B5, offset: 0xF8B5, size: 0x8, addend: 0x0, symName: __ZNSt3__110__distanceB7v160006IPmEENS_15iterator_traitsIT_E15difference_typeES3_S3_NS_26random_access_iterator_tagE, symObjAddr: 0x6444, symBinAddr: 0x100007CE4, symSize: 0x28 }
  - { offsetInCU: 0xF902, offset: 0xF902, size: 0x8, addend: 0x0, symName: __ZNSt3__19__advanceB7v160006IPmEEvRT_NS_15iterator_traitsIS2_E15difference_typeENS_26random_access_iterator_tagE, symObjAddr: 0x646C, symBinAddr: 0x100007D0C, symSize: 0x28 }
  - { offsetInCU: 0xF94B, offset: 0xF94B, size: 0x8, addend: 0x0, symName: __ZNSt3__16__copyB7v160006INS_17_ClassicAlgPolicyEPmS2_S2_EENS_4pairIT0_T2_EES4_T1_S5_, symObjAddr: 0x6494, symBinAddr: 0x100007D34, symSize: 0x44 }
  - { offsetInCU: 0xF9B7, offset: 0xF9B7, size: 0x8, addend: 0x0, symName: __ZNSt3__123__dispatch_copy_or_moveB7v160006INS_17_ClassicAlgPolicyENS_11__copy_loopIS1_EENS_14__copy_trivialEPmS5_S5_EENS_4pairIT2_T4_EES7_T3_S8_, symObjAddr: 0x64D8, symBinAddr: 0x100007D78, symSize: 0x44 }
  - { offsetInCU: 0xFA35, offset: 0xFA35, size: 0x8, addend: 0x0, symName: __ZNSt3__121__unwrap_and_dispatchB7v160006INS_10__overloadINS_11__copy_loopINS_17_ClassicAlgPolicyEEENS_14__copy_trivialEEEPmS7_S7_Li0EEENS_4pairIT0_T2_EES9_T1_SA_, symObjAddr: 0x651C, symBinAddr: 0x100007DBC, symSize: 0xB4 }
  - { offsetInCU: 0xFAC3, offset: 0xFAC3, size: 0x8, addend: 0x0, symName: __ZNSt3__114__unwrap_rangeB7v160006IPmS1_EENS_4pairIT0_S3_EET_S5_, symObjAddr: 0x65D0, symBinAddr: 0x100007E70, symSize: 0x60 }
  - { offsetInCU: 0xFC12, offset: 0xFC12, size: 0x8, addend: 0x0, symName: __ZNSt3__113__unwrap_iterB7v160006IPmNS_18__unwrap_iter_implIS1_Lb1EEELi0EEEDTclsrT0_8__unwrapclsr3stdE7declvalIT_EEEES5_, symObjAddr: 0x6678, symBinAddr: 0x100007F18, symSize: 0x24 }
  - { offsetInCU: 0xFC56, offset: 0xFC56, size: 0x8, addend: 0x0, symName: __ZNSt3__19make_pairB7v160006IPmS1_EENS_4pairINS_18__unwrap_ref_decayIT_E4typeENS3_IT0_E4typeEEEOS4_OS7_, symObjAddr: 0x669C, symBinAddr: 0x100007F3C, symSize: 0x38 }
  - { offsetInCU: 0xFCA5, offset: 0xFCA5, size: 0x8, addend: 0x0, symName: __ZNSt3__114__rewrap_rangeB7v160006IPmS1_EET_S2_T0_, symObjAddr: 0x66D4, symBinAddr: 0x100007F74, symSize: 0x2C }
  - { offsetInCU: 0xFCF1, offset: 0xFCF1, size: 0x8, addend: 0x0, symName: __ZNSt3__113__rewrap_iterB7v160006IPmS1_NS_18__unwrap_iter_implIS1_Lb1EEEEET_S4_T0_, symObjAddr: 0x6700, symBinAddr: 0x100007FA0, symSize: 0x3C }
  - { offsetInCU: 0xFD46, offset: 0xFD46, size: 0x8, addend: 0x0, symName: __ZNSt3__119__copy_trivial_implB7v160006ImmEENS_4pairIPT_PT0_EES3_S3_S5_, symObjAddr: 0x673C, symBinAddr: 0x100007FDC, symSize: 0x84 }
  - { offsetInCU: 0xFDAE, offset: 0xFDAE, size: 0x8, addend: 0x0, symName: __ZNSt3__19make_pairB7v160006IRPmS1_EENS_4pairINS_18__unwrap_ref_decayIT_E4typeENS4_IT0_E4typeEEEOS5_OS8_, symObjAddr: 0x67C0, symBinAddr: 0x100008060, symSize: 0x38 }
  - { offsetInCU: 0xFE50, offset: 0xFE50, size: 0x8, addend: 0x0, symName: __ZNSt3__130__uninitialized_allocator_copyB7v160006INS_9allocatorImEEPmS3_S3_EET2_RT_T0_T1_S4_, symObjAddr: 0x6988, symBinAddr: 0x100008228, symSize: 0xF4 }
  - { offsetInCU: 0xFEEE, offset: 0xFEEE, size: 0x8, addend: 0x0, symName: __ZNSt3__122__make_exception_guardB7v160006INS_29_AllocatorDestroyRangeReverseINS_9allocatorImEEPmEEEENS_28__exception_guard_exceptionsIT_EES7_, symObjAddr: 0x6AEC, symBinAddr: 0x10000838C, symSize: 0x4C }
  - { offsetInCU: 0xFF24, offset: 0xFF24, size: 0x8, addend: 0x0, symName: __ZNSt3__119__allocator_destroyB7v160006INS_9allocatorImEENS_16reverse_iteratorIPmEES5_EEvRT_T0_T1_, symObjAddr: 0x6D74, symBinAddr: 0x100008614, symSize: 0x70 }
  - { offsetInCU: 0xFF87, offset: 0xFF87, size: 0x8, addend: 0x0, symName: __ZNSt3__1neB7v160006IPmS1_EEbRKNS_16reverse_iteratorIT_EERKNS2_IT0_EE, symObjAddr: 0x6E18, symBinAddr: 0x1000086B8, symSize: 0x48 }
  - { offsetInCU: 0xFFD3, offset: 0xFFD3, size: 0x8, addend: 0x0, symName: __ZNSt3__112__to_addressB7v160006INS_16reverse_iteratorIPmEEvEENS_5decayIDTclsr19__to_address_helperIT_EE6__callclsr3stdE7declvalIRKS5_EEEEE4typeES7_, symObjAddr: 0x6E60, symBinAddr: 0x100008700, symSize: 0x24 }
  - { offsetInCU: 0x10032, offset: 0x10032, size: 0x8, addend: 0x0, symName: __ZNSt3__119__allocate_at_leastB7v160006INS_9allocatorImEEEENS_19__allocation_resultINS_16allocator_traitsIT_E7pointerEEERS5_m, symObjAddr: 0x7180, symBinAddr: 0x100008A20, symSize: 0x40 }
  - { offsetInCU: 0x10075, offset: 0x10075, size: 0x8, addend: 0x0, symName: __ZNSt3__122__make_exception_guardB7v160006INS_6vectorIdNS_9allocatorIdEEE16__destroy_vectorEEENS_28__exception_guard_exceptionsIT_EES7_, symObjAddr: 0x7440, symBinAddr: 0x100008CE0, symSize: 0x40 }
  - { offsetInCU: 0x100AA, offset: 0x100AA, size: 0x8, addend: 0x0, symName: __ZNSt3__115__debug_db_swapB7v160006INS_6vectorIdNS_9allocatorIdEEEEEEvPT_S6_, symObjAddr: 0x7A6C, symBinAddr: 0x10000930C, symSize: 0x14 }
  - { offsetInCU: 0x100E9, offset: 0x100E9, size: 0x8, addend: 0x0, symName: __ZNSt3__119__allocate_at_leastB7v160006INS_9allocatorINS_6vectorIdNS1_IdEEEEEEEENS_19__allocation_resultINS_16allocator_traitsIT_E7pointerEEERS8_m, symObjAddr: 0x7F6C, symBinAddr: 0x10000980C, symSize: 0x40 }
  - { offsetInCU: 0x1012C, offset: 0x1012C, size: 0x8, addend: 0x0, symName: __ZNSt3__142__uninitialized_allocator_move_if_noexceptB7v160006INS_9allocatorINS_6vectorIdNS1_IdEEEEEENS_16reverse_iteratorIPS4_EES8_S8_EET2_RT_T0_T1_S9_, symObjAddr: 0x8124, symBinAddr: 0x1000099C4, symSize: 0x12C }
  - { offsetInCU: 0x101CC, offset: 0x101CC, size: 0x8, addend: 0x0, symName: __ZNSt3__14swapB7v160006IPNS_6vectorIdNS_9allocatorIdEEEEEENS_9enable_ifIXaasr21is_move_constructibleIT_EE5valuesr18is_move_assignableIS7_EE5valueEvE4typeERS7_SA_, symObjAddr: 0x829C, symBinAddr: 0x100009B3C, symSize: 0x3C }
  - { offsetInCU: 0x1021D, offset: 0x1021D, size: 0x8, addend: 0x0, symName: __ZNSt3__125__debug_db_invalidate_allB7v160006INS_6vectorINS1_IdNS_9allocatorIdEEEENS2_IS4_EEEEEEvPT_, symObjAddr: 0x83A0, symBinAddr: 0x100009C40, symSize: 0x10 }
  - { offsetInCU: 0x1024E, offset: 0x1024E, size: 0x8, addend: 0x0, symName: __ZNSt3__122__make_exception_guardB7v160006INS_29_AllocatorDestroyRangeReverseINS_9allocatorINS_6vectorIdNS2_IdEEEEEENS_16reverse_iteratorIPS5_EEEEEENS_28__exception_guard_exceptionsIT_EESC_, symObjAddr: 0x83B0, symBinAddr: 0x100009C50, symSize: 0x4C }
  - { offsetInCU: 0x10284, offset: 0x10284, size: 0x8, addend: 0x0, symName: __ZNSt3__1neB7v160006IPNS_6vectorIdNS_9allocatorIdEEEES5_EEbRKNS_16reverse_iteratorIT_EERKNS6_IT0_EE, symObjAddr: 0x8440, symBinAddr: 0x100009CE0, symSize: 0x48 }
  - { offsetInCU: 0x102D0, offset: 0x102D0, size: 0x8, addend: 0x0, symName: __ZNSt3__112__to_addressB7v160006INS_16reverse_iteratorIPNS_6vectorIdNS_9allocatorIdEEEEEEvEENS_5decayIDTclsr19__to_address_helperIT_EE6__callclsr3stdE7declvalIRKS9_EEEEE4typeESB_, symObjAddr: 0x8488, symBinAddr: 0x100009D28, symSize: 0x24 }
  - { offsetInCU: 0x1032F, offset: 0x1032F, size: 0x8, addend: 0x0, symName: __ZNSt3__119__allocator_destroyB7v160006INS_9allocatorINS_6vectorIdNS1_IdEEEEEENS_16reverse_iteratorINS6_IPS4_EEEES9_EEvRT_T0_T1_, symObjAddr: 0x8738, symBinAddr: 0x100009FD8, symSize: 0x70 }
  - { offsetInCU: 0x10394, offset: 0x10394, size: 0x8, addend: 0x0, symName: __ZNSt3__1neB7v160006INS_16reverse_iteratorIPNS_6vectorIdNS_9allocatorIdEEEEEES7_EEbRKNS1_IT_EERKNS1_IT0_EE, symObjAddr: 0x87E4, symBinAddr: 0x10000A084, symSize: 0x60 }
  - { offsetInCU: 0x103E0, offset: 0x103E0, size: 0x8, addend: 0x0, symName: __ZNSt3__112__to_addressB7v160006INS_16reverse_iteratorINS1_IPNS_6vectorIdNS_9allocatorIdEEEEEEEEvEENS_5decayIDTclsr19__to_address_helperIT_EE6__callclsr3stdE7declvalIRKSA_EEEEE4typeESC_, symObjAddr: 0x8844, symBinAddr: 0x10000A0E4, symSize: 0x24 }
  - { offsetInCU: 0x1043F, offset: 0x1043F, size: 0x8, addend: 0x0, symName: __ZNSt3__119__debug_db_insert_cB7v160006INS_6vectorI10PerceptronNS_9allocatorIS2_EEEEEEvPT_, symObjAddr: 0x8C40, symBinAddr: 0x10000A4E0, symSize: 0x10 }
  - { offsetInCU: 0x10470, offset: 0x10470, size: 0x8, addend: 0x0, symName: __ZNSt3__118__debug_db_erase_cB7v160006INS_6vectorI10PerceptronNS_9allocatorIS2_EEEEEEvPT_, symObjAddr: 0x8F04, symBinAddr: 0x10000A7A4, symSize: 0x10 }
  - { offsetInCU: 0x104A1, offset: 0x104A1, size: 0x8, addend: 0x0, symName: __ZNSt3__112__to_addressB7v160006I10PerceptronEEPT_S3_, symObjAddr: 0x9020, symBinAddr: 0x10000A8C0, symSize: 0x14 }
  - { offsetInCU: 0x104D6, offset: 0x104D6, size: 0x8, addend: 0x0, symName: __ZNSt3__115__debug_db_swapB7v160006INS_6vectorI10PerceptronNS_9allocatorIS2_EEEEEEvPT_S7_, symObjAddr: 0x9618, symBinAddr: 0x10000AEB8, symSize: 0x14 }
  - { offsetInCU: 0x10515, offset: 0x10515, size: 0x8, addend: 0x0, symName: __ZNSt3__119__allocate_at_leastB7v160006INS_9allocatorINS_6vectorI10PerceptronNS1_IS3_EEEEEEEENS_19__allocation_resultINS_16allocator_traitsIT_E7pointerEEERS9_m, symObjAddr: 0x9B78, symBinAddr: 0x10000B418, symSize: 0x40 }
  - { offsetInCU: 0x10558, offset: 0x10558, size: 0x8, addend: 0x0, symName: __ZNSt3__142__uninitialized_allocator_move_if_noexceptB7v160006INS_9allocatorINS_6vectorI10PerceptronNS1_IS3_EEEEEENS_16reverse_iteratorIPS5_EES9_S9_EET2_RT_T0_T1_SA_, symObjAddr: 0x9D30, symBinAddr: 0x10000B5D0, symSize: 0x12C }
  - { offsetInCU: 0x105F8, offset: 0x105F8, size: 0x8, addend: 0x0, symName: __ZNSt3__14swapB7v160006IPNS_6vectorI10PerceptronNS_9allocatorIS2_EEEEEENS_9enable_ifIXaasr21is_move_constructibleIT_EE5valuesr18is_move_assignableIS8_EE5valueEvE4typeERS8_SB_, symObjAddr: 0x9EA8, symBinAddr: 0x10000B748, symSize: 0x3C }
  - { offsetInCU: 0x10649, offset: 0x10649, size: 0x8, addend: 0x0, symName: __ZNSt3__125__debug_db_invalidate_allB7v160006INS_6vectorINS1_I10PerceptronNS_9allocatorIS2_EEEENS3_IS5_EEEEEEvPT_, symObjAddr: 0x9FAC, symBinAddr: 0x10000B84C, symSize: 0x10 }
  - { offsetInCU: 0x1067A, offset: 0x1067A, size: 0x8, addend: 0x0, symName: __ZNSt3__122__make_exception_guardB7v160006INS_29_AllocatorDestroyRangeReverseINS_9allocatorINS_6vectorI10PerceptronNS2_IS4_EEEEEENS_16reverse_iteratorIPS6_EEEEEENS_28__exception_guard_exceptionsIT_EESD_, symObjAddr: 0x9FBC, symBinAddr: 0x10000B85C, symSize: 0x4C }
  - { offsetInCU: 0x106B0, offset: 0x106B0, size: 0x8, addend: 0x0, symName: __ZNSt3__1neB7v160006IPNS_6vectorI10PerceptronNS_9allocatorIS2_EEEES6_EEbRKNS_16reverse_iteratorIT_EERKNS7_IT0_EE, symObjAddr: 0xA04C, symBinAddr: 0x10000B8EC, symSize: 0x48 }
  - { offsetInCU: 0x106FC, offset: 0x106FC, size: 0x8, addend: 0x0, symName: __ZNSt3__112__to_addressB7v160006INS_16reverse_iteratorIPNS_6vectorI10PerceptronNS_9allocatorIS3_EEEEEEvEENS_5decayIDTclsr19__to_address_helperIT_EE6__callclsr3stdE7declvalIRKSA_EEEEE4typeESC_, symObjAddr: 0xA094, symBinAddr: 0x10000B934, symSize: 0x24 }
  - { offsetInCU: 0x1075B, offset: 0x1075B, size: 0x8, addend: 0x0, symName: __ZNSt3__119__allocator_destroyB7v160006INS_9allocatorINS_6vectorI10PerceptronNS1_IS3_EEEEEENS_16reverse_iteratorINS7_IPS5_EEEESA_EEvRT_T0_T1_, symObjAddr: 0xA344, symBinAddr: 0x10000BBE4, symSize: 0x70 }
  - { offsetInCU: 0x107C0, offset: 0x107C0, size: 0x8, addend: 0x0, symName: __ZNSt3__1neB7v160006INS_16reverse_iteratorIPNS_6vectorI10PerceptronNS_9allocatorIS3_EEEEEES8_EEbRKNS1_IT_EERKNS1_IT0_EE, symObjAddr: 0xA3F0, symBinAddr: 0x10000BC90, symSize: 0x60 }
  - { offsetInCU: 0x1080C, offset: 0x1080C, size: 0x8, addend: 0x0, symName: __ZNSt3__112__to_addressB7v160006INS_16reverse_iteratorINS1_IPNS_6vectorI10PerceptronNS_9allocatorIS3_EEEEEEEEvEENS_5decayIDTclsr19__to_address_helperIT_EE6__callclsr3stdE7declvalIRKSB_EEEEE4typeESD_, symObjAddr: 0xA450, symBinAddr: 0x10000BCF0, symSize: 0x24 }
  - { offsetInCU: 0x1086B, offset: 0x1086B, size: 0x8, addend: 0x0, symName: __ZNSt3__119__allocate_at_leastB7v160006INS_9allocatorI10PerceptronEEEENS_19__allocation_resultINS_16allocator_traitsIT_E7pointerEEERS6_m, symObjAddr: 0xAF24, symBinAddr: 0x10000C7C4, symSize: 0x40 }
  - { offsetInCU: 0x108AE, offset: 0x108AE, size: 0x8, addend: 0x0, symName: __ZNSt3__142__uninitialized_allocator_move_if_noexceptB7v160006INS_9allocatorI10PerceptronEENS_16reverse_iteratorIPS2_EES6_S6_EET2_RT_T0_T1_S7_, symObjAddr: 0xB0D8, symBinAddr: 0x10000C978, symSize: 0x12C }
  - { offsetInCU: 0x1094E, offset: 0x1094E, size: 0x8, addend: 0x0, symName: __ZNSt3__14swapB7v160006IP10PerceptronEENS_9enable_ifIXaasr21is_move_constructibleIT_EE5valuesr18is_move_assignableIS4_EE5valueEvE4typeERS4_S7_, symObjAddr: 0xB250, symBinAddr: 0x10000CAF0, symSize: 0x3C }
  - { offsetInCU: 0x1099F, offset: 0x1099F, size: 0x8, addend: 0x0, symName: __ZNSt3__125__debug_db_invalidate_allB7v160006INS_6vectorI10PerceptronNS_9allocatorIS2_EEEEEEvPT_, symObjAddr: 0xB338, symBinAddr: 0x10000CBD8, symSize: 0x10 }
  - { offsetInCU: 0x109D0, offset: 0x109D0, size: 0x8, addend: 0x0, symName: __ZNSt3__122__make_exception_guardB7v160006INS_29_AllocatorDestroyRangeReverseINS_9allocatorI10PerceptronEENS_16reverse_iteratorIPS3_EEEEEENS_28__exception_guard_exceptionsIT_EESA_, symObjAddr: 0xB348, symBinAddr: 0x10000CBE8, symSize: 0x4C }
  - { offsetInCU: 0x10A06, offset: 0x10A06, size: 0x8, addend: 0x0, symName: __ZNSt3__1neB7v160006IP10PerceptronS2_EEbRKNS_16reverse_iteratorIT_EERKNS3_IT0_EE, symObjAddr: 0xB3D8, symBinAddr: 0x10000CC78, symSize: 0x48 }
  - { offsetInCU: 0x10A52, offset: 0x10A52, size: 0x8, addend: 0x0, symName: __ZNSt3__112__to_addressB7v160006INS_16reverse_iteratorIP10PerceptronEEvEENS_5decayIDTclsr19__to_address_helperIT_EE6__callclsr3stdE7declvalIRKS6_EEEEE4typeES8_, symObjAddr: 0xB420, symBinAddr: 0x10000CCC0, symSize: 0x24 }
  - { offsetInCU: 0x10AB1, offset: 0x10AB1, size: 0x8, addend: 0x0, symName: __ZNSt3__119__allocator_destroyB7v160006INS_9allocatorI10PerceptronEENS_16reverse_iteratorINS4_IPS2_EEEES7_EEvRT_T0_T1_, symObjAddr: 0xB6D0, symBinAddr: 0x10000CF70, symSize: 0x70 }
  - { offsetInCU: 0x10B16, offset: 0x10B16, size: 0x8, addend: 0x0, symName: __ZNSt3__1neB7v160006INS_16reverse_iteratorIP10PerceptronEES4_EEbRKNS1_IT_EERKNS1_IT0_EE, symObjAddr: 0xB77C, symBinAddr: 0x10000D01C, symSize: 0x60 }
  - { offsetInCU: 0x10B62, offset: 0x10B62, size: 0x8, addend: 0x0, symName: __ZNSt3__112__to_addressB7v160006INS_16reverse_iteratorINS1_IP10PerceptronEEEEvEENS_5decayIDTclsr19__to_address_helperIT_EE6__callclsr3stdE7declvalIRKS7_EEEEE4typeES9_, symObjAddr: 0xB7DC, symBinAddr: 0x10000D07C, symSize: 0x24 }
  - { offsetInCU: 0x10BC1, offset: 0x10BC1, size: 0x8, addend: 0x0, symName: __ZNSt3__19use_facetB7v160006INS_5ctypeIcEEEERKT_RKNS_6localeE, symObjAddr: 0xBCE8, symBinAddr: 0x10000D588, symSize: 0x2C }
  - { offsetInCU: 0x11090, offset: 0x11090, size: 0x8, addend: 0x0, symName: __ZNSt3__116__pad_and_outputB7v160006IcNS_11char_traitsIcEEEENS_19ostreambuf_iteratorIT_T0_EES6_PKS4_S8_S8_RNS_8ios_baseES4_, symObjAddr: 0xBF88, symBinAddr: 0x10000D828, symSize: 0x240 }
  - { offsetInCU: 0x1115F, offset: 0x1115F, size: 0x8, addend: 0x0, symName: __ZNSt3__119__debug_db_insert_cB7v160006INS_12basic_stringIcNS_11char_traitsIcEENS_9allocatorIcEEEEEEvPT_, symObjAddr: 0xC43C, symBinAddr: 0x10000DCDC, symSize: 0x10 }
  - { offsetInCU: 0x11190, offset: 0x11190, size: 0x8, addend: 0x0, symName: __ZNSt3__112__to_addressB7v160006IcEEPT_S2_, symObjAddr: 0xC508, symBinAddr: 0x10000DDA8, symSize: 0x14 }
  - { offsetInCU: 0x111F8, offset: 0x111F8, size: 0x8, addend: 0x0, symName: __ZNSt3__118__constexpr_strlenB7v160006EPKc, symObjAddr: 0xC770, symBinAddr: 0x10000E010, symSize: 0x24 }
  - { offsetInCU: 0x11781, offset: 0x11781, size: 0x8, addend: 0x0, symName: __ZSt28__throw_bad_array_new_lengthB7v160006v, symObjAddr: 0x2E8C, symBinAddr: 0x10000472C, symSize: 0x34 }
  - { offsetInCU: 0x11C48, offset: 0x11C48, size: 0x8, addend: 0x0, symName: __ZNSt3__16vectorIdNS_9allocatorIdEEE26__swap_out_circular_bufferERNS_14__split_bufferIdRS2_EE, symObjAddr: 0x2650, symBinAddr: 0x100003EF0, symSize: 0x118 }
  - { offsetInCU: 0x12312, offset: 0x12312, size: 0x8, addend: 0x0, symName: __ZNSt3__16vectorINS0_IdNS_9allocatorIdEEEENS1_IS3_EEE26__swap_out_circular_bufferERNS_14__split_bufferIS3_RS4_EE, symObjAddr: 0x7BF4, symBinAddr: 0x100009494, symSize: 0x118 }
  - { offsetInCU: 0x123A8, offset: 0x123A8, size: 0x8, addend: 0x0, symName: __ZNSt3__16vectorINS0_I10PerceptronNS_9allocatorIS1_EEEENS2_IS4_EEE26__swap_out_circular_bufferERNS_14__split_bufferIS4_RS5_EE, symObjAddr: 0x9800, symBinAddr: 0x10000B0A0, symSize: 0x118 }
  - { offsetInCU: 0x12439, offset: 0x12439, size: 0x8, addend: 0x0, symName: __ZNSt3__16vectorI10PerceptronNS_9allocatorIS1_EEE26__swap_out_circular_bufferERNS_14__split_bufferIS1_RS3_EE, symObjAddr: 0xABBC, symBinAddr: 0x10000C45C, symSize: 0x118 }
  - { offsetInCU: 0x148D2, offset: 0x148D2, size: 0x8, addend: 0x0, symName: __Z5frandv, symObjAddr: 0x0, symBinAddr: 0x1000018A0, symSize: 0x34 }
  - { offsetInCU: 0x148F0, offset: 0x148F0, size: 0x8, addend: 0x0, symName: __ZN10PerceptronC2Emd, symObjAddr: 0x34, symBinAddr: 0x1000018D4, symSize: 0xA8 }
  - { offsetInCU: 0x14937, offset: 0x14937, size: 0x8, addend: 0x0, symName: __ZNSt3__16vectorIdNS_9allocatorIdEEEC1B7v160006Ev, symObjAddr: 0xDC, symBinAddr: 0x10000197C, symSize: 0x2C }
  - { offsetInCU: 0x14960, offset: 0x14960, size: 0x8, addend: 0x0, symName: __ZNSt3__16vectorIdNS_9allocatorIdEEE6resizeEm, symObjAddr: 0x108, symBinAddr: 0x1000019A8, symSize: 0x94 }
  - { offsetInCU: 0x149A4, offset: 0x149A4, size: 0x8, addend: 0x0, symName: __ZNSt3__16vectorIdNS_9allocatorIdEEE5beginB7v160006Ev, symObjAddr: 0x204, symBinAddr: 0x100001AA4, symSize: 0x30 }
  - { offsetInCU: 0x149CA, offset: 0x149CA, size: 0x8, addend: 0x0, symName: __ZNSt3__16vectorIdNS_9allocatorIdEEE3endB7v160006Ev, symObjAddr: 0x234, symBinAddr: 0x100001AD4, symSize: 0x30 }
  - { offsetInCU: 0x149F0, offset: 0x149F0, size: 0x8, addend: 0x0, symName: __ZNSt3__16vectorIdNS_9allocatorIdEEED1B7v160006Ev, symObjAddr: 0x264, symBinAddr: 0x100001B04, symSize: 0x2C }
  - { offsetInCU: 0x14A19, offset: 0x14A19, size: 0x8, addend: 0x0, symName: __ZN10PerceptronC1Emd, symObjAddr: 0x290, symBinAddr: 0x100001B30, symSize: 0x3C }
  - { offsetInCU: 0x14A60, offset: 0x14A60, size: 0x8, addend: 0x0, symName: __ZN10Perceptron3runENSt3__16vectorIdNS0_9allocatorIdEEEE, symObjAddr: 0x2CC, symBinAddr: 0x100001B6C, symSize: 0x90 }
  - { offsetInCU: 0x14AA4, offset: 0x14AA4, size: 0x8, addend: 0x0, symName: __ZNSt3__16vectorIdNS_9allocatorIdEEE9push_backB7v160006ERKd, symObjAddr: 0x35C, symBinAddr: 0x100001BFC, symSize: 0x6C }
  - { offsetInCU: 0x14AD9, offset: 0x14AD9, size: 0x8, addend: 0x0, symName: __ZN10Perceptron7sigmoidEd, symObjAddr: 0x458, symBinAddr: 0x100001CF8, symSize: 0x3C }
  - { offsetInCU: 0x14B0E, offset: 0x14B0E, size: 0x8, addend: 0x0, symName: __ZN10Perceptron11set_weightsENSt3__16vectorIdNS0_9allocatorIdEEEE, symObjAddr: 0x494, symBinAddr: 0x100001D34, symSize: 0x2C }
  - { offsetInCU: 0x14B44, offset: 0x14B44, size: 0x8, addend: 0x0, symName: __ZNSt3__16vectorIdNS_9allocatorIdEEEaSB7v160006ERKS3_, symObjAddr: 0x4C0, symBinAddr: 0x100001D60, symSize: 0x68 }
  - { offsetInCU: 0x14C57, offset: 0x14C57, size: 0x8, addend: 0x0, symName: __ZN20MultiLayerPerceptronC2ENSt3__16vectorImNS0_9allocatorImEEEEdd, symObjAddr: 0x528, symBinAddr: 0x100001DC8, symSize: 0x2F8 }
  - { offsetInCU: 0x14CD7, offset: 0x14CD7, size: 0x8, addend: 0x0, symName: __ZNSt3__16vectorImNS_9allocatorImEEEC1B7v160006Ev, symObjAddr: 0x820, symBinAddr: 0x1000020C0, symSize: 0x2C }
  - { offsetInCU: 0x14D00, offset: 0x14D00, size: 0x8, addend: 0x0, symName: __ZNSt3__16vectorINS0_I10PerceptronNS_9allocatorIS1_EEEENS2_IS4_EEEC1B7v160006Ev, symObjAddr: 0x84C, symBinAddr: 0x1000020EC, symSize: 0x2C }
  - { offsetInCU: 0x14D29, offset: 0x14D29, size: 0x8, addend: 0x0, symName: __ZNSt3__16vectorINS0_IdNS_9allocatorIdEEEENS1_IS3_EEEC1B7v160006Ev, symObjAddr: 0x878, symBinAddr: 0x100002118, symSize: 0x2C }
  - { offsetInCU: 0x14D52, offset: 0x14D52, size: 0x8, addend: 0x0, symName: __ZNSt3__16vectorImNS_9allocatorImEEEaSB7v160006ERKS3_, symObjAddr: 0x8A4, symBinAddr: 0x100002144, symSize: 0x68 }
  - { offsetInCU: 0x14D87, offset: 0x14D87, size: 0x8, addend: 0x0, symName: __ZNKSt3__16vectorImNS_9allocatorImEEE4sizeB7v160006Ev, symObjAddr: 0x90C, symBinAddr: 0x1000021AC, symSize: 0x28 }
  - { offsetInCU: 0x14DAC, offset: 0x14DAC, size: 0x8, addend: 0x0, symName: __ZNSt3__16vectorINS0_IdNS_9allocatorIdEEEENS1_IS3_EEE9push_backB7v160006EOS3_, symObjAddr: 0x934, symBinAddr: 0x1000021D4, symSize: 0x6C }
  - { offsetInCU: 0x14DE1, offset: 0x14DE1, size: 0x8, addend: 0x0, symName: __ZNSt3__16vectorImNS_9allocatorImEEEixB7v160006Em, symObjAddr: 0x9A0, symBinAddr: 0x100002240, symSize: 0x24 }
  - { offsetInCU: 0x14E17, offset: 0x14E17, size: 0x8, addend: 0x0, symName: __ZNSt3__16vectorIdNS_9allocatorIdEEEC1EmRKd, symObjAddr: 0x9C4, symBinAddr: 0x100002264, symSize: 0x3C }
  - { offsetInCU: 0x14E60, offset: 0x14E60, size: 0x8, addend: 0x0, symName: __ZNSt3__16vectorINS0_I10PerceptronNS_9allocatorIS1_EEEENS2_IS4_EEE9push_backB7v160006EOS4_, symObjAddr: 0xA00, symBinAddr: 0x1000022A0, symSize: 0x6C }
  - { offsetInCU: 0x14E95, offset: 0x14E95, size: 0x8, addend: 0x0, symName: __ZNSt3__16vectorI10PerceptronNS_9allocatorIS1_EEEC1B7v160006Ev, symObjAddr: 0xA6C, symBinAddr: 0x10000230C, symSize: 0x2C }
  - { offsetInCU: 0x14EBE, offset: 0x14EBE, size: 0x8, addend: 0x0, symName: __ZNSt3__16vectorI10PerceptronNS_9allocatorIS1_EEED1B7v160006Ev, symObjAddr: 0xA98, symBinAddr: 0x100002338, symSize: 0x2C }
  - { offsetInCU: 0x14EE7, offset: 0x14EE7, size: 0x8, addend: 0x0, symName: __ZNSt3__16vectorINS0_I10PerceptronNS_9allocatorIS1_EEEENS2_IS4_EEEixB7v160006Em, symObjAddr: 0xAC4, symBinAddr: 0x100002364, symSize: 0x2C }
  - { offsetInCU: 0x14F1D, offset: 0x14F1D, size: 0x8, addend: 0x0, symName: __ZNSt3__16vectorI10PerceptronNS_9allocatorIS1_EEE9push_backB7v160006EOS1_, symObjAddr: 0xAF0, symBinAddr: 0x100002390, symSize: 0x6C }
  - { offsetInCU: 0x14F52, offset: 0x14F52, size: 0x8, addend: 0x0, symName: __ZN10PerceptronD1Ev, symObjAddr: 0xB5C, symBinAddr: 0x1000023FC, symSize: 0x2C }
  - { offsetInCU: 0x14F7D, offset: 0x14F7D, size: 0x8, addend: 0x0, symName: __ZNSt3__16vectorINS0_IdNS_9allocatorIdEEEENS1_IS3_EEED1B7v160006Ev, symObjAddr: 0xB88, symBinAddr: 0x100002428, symSize: 0x2C }
  - { offsetInCU: 0x14FA6, offset: 0x14FA6, size: 0x8, addend: 0x0, symName: __ZNSt3__16vectorINS0_I10PerceptronNS_9allocatorIS1_EEEENS2_IS4_EEED1B7v160006Ev, symObjAddr: 0xBB4, symBinAddr: 0x100002454, symSize: 0x2C }
  - { offsetInCU: 0x14FCF, offset: 0x14FCF, size: 0x8, addend: 0x0, symName: __ZNSt3__16vectorImNS_9allocatorImEEED1B7v160006Ev, symObjAddr: 0xBE0, symBinAddr: 0x100002480, symSize: 0x2C }
  - { offsetInCU: 0x14FF8, offset: 0x14FF8, size: 0x8, addend: 0x0, symName: __ZN20MultiLayerPerceptronC1ENSt3__16vectorImNS0_9allocatorImEEEEdd, symObjAddr: 0xC0C, symBinAddr: 0x1000024AC, symSize: 0x44 }
  - { offsetInCU: 0x1504E, offset: 0x1504E, size: 0x8, addend: 0x0, symName: __ZN20MultiLayerPerceptron11set_weightsENSt3__16vectorINS1_INS1_IdNS0_9allocatorIdEEEENS2_IS4_EEEENS2_IS6_EEEE, symObjAddr: 0xC50, symBinAddr: 0x1000024F0, symSize: 0x134 }
  - { offsetInCU: 0x150AC, offset: 0x150AC, size: 0x8, addend: 0x0, symName: __ZNKSt3__16vectorINS0_INS0_IdNS_9allocatorIdEEEENS1_IS3_EEEENS1_IS5_EEE4sizeB7v160006Ev, symObjAddr: 0xD84, symBinAddr: 0x100002624, symSize: 0x28 }
  - { offsetInCU: 0x150D1, offset: 0x150D1, size: 0x8, addend: 0x0, symName: __ZNSt3__16vectorINS0_INS0_IdNS_9allocatorIdEEEENS1_IS3_EEEENS1_IS5_EEEixB7v160006Em, symObjAddr: 0xDAC, symBinAddr: 0x10000264C, symSize: 0x2C }
  - { offsetInCU: 0x15107, offset: 0x15107, size: 0x8, addend: 0x0, symName: __ZNKSt3__16vectorINS0_IdNS_9allocatorIdEEEENS1_IS3_EEE4sizeB7v160006Ev, symObjAddr: 0xDD8, symBinAddr: 0x100002678, symSize: 0x28 }
  - { offsetInCU: 0x1512C, offset: 0x1512C, size: 0x8, addend: 0x0, symName: __ZNSt3__16vectorI10PerceptronNS_9allocatorIS1_EEEixB7v160006Em, symObjAddr: 0xE00, symBinAddr: 0x1000026A0, symSize: 0x24 }
  - { offsetInCU: 0x15162, offset: 0x15162, size: 0x8, addend: 0x0, symName: __ZNSt3__16vectorINS0_IdNS_9allocatorIdEEEENS1_IS3_EEEixB7v160006Em, symObjAddr: 0xE24, symBinAddr: 0x1000026C4, symSize: 0x2C }
  - { offsetInCU: 0x15198, offset: 0x15198, size: 0x8, addend: 0x0, symName: __ZNSt3__16vectorIdNS_9allocatorIdEEEC1ERKS3_, symObjAddr: 0xE50, symBinAddr: 0x1000026F0, symSize: 0x34 }
  - { offsetInCU: 0x151D2, offset: 0x151D2, size: 0x8, addend: 0x0, symName: __ZN20MultiLayerPerceptron13print_weightsEv, symObjAddr: 0xE84, symBinAddr: 0x100002724, symSize: 0x1B4 }
  - { offsetInCU: 0x15282, offset: 0x15282, size: 0x8, addend: 0x0, symName: __ZNSt3__113basic_ostreamIcNS_11char_traitsIcEEElsB7v160006EPFRS3_S4_E, symObjAddr: 0x1038, symBinAddr: 0x1000028D8, symSize: 0x2C }
  - { offsetInCU: 0x152B5, offset: 0x152B5, size: 0x8, addend: 0x0, symName: __ZNKSt3__16vectorINS0_I10PerceptronNS_9allocatorIS1_EEEENS2_IS4_EEE4sizeB7v160006Ev, symObjAddr: 0x10BC, symBinAddr: 0x10000295C, symSize: 0x28 }
  - { offsetInCU: 0x152DA, offset: 0x152DA, size: 0x8, addend: 0x0, symName: __ZNKSt3__111__wrap_iterIPdEdeB7v160006Ev, symObjAddr: 0x1160, symBinAddr: 0x100002A00, symSize: 0x18 }
  - { offsetInCU: 0x152FF, offset: 0x152FF, size: 0x8, addend: 0x0, symName: __ZNSt3__111__wrap_iterIPdEppB7v160006Ev, symObjAddr: 0x1178, symBinAddr: 0x100002A18, symSize: 0x20 }
  - { offsetInCU: 0x15324, offset: 0x15324, size: 0x8, addend: 0x0, symName: __ZN20MultiLayerPerceptron3runENSt3__16vectorIdNS0_9allocatorIdEEEE, symObjAddr: 0x1198, symBinAddr: 0x100002A38, symSize: 0x18C }
  - { offsetInCU: 0x15382, offset: 0x15382, size: 0x8, addend: 0x0, symName: __ZNSt3__16vectorIdNS_9allocatorIdEEEixB7v160006Em, symObjAddr: 0x1324, symBinAddr: 0x100002BC4, symSize: 0x24 }
  - { offsetInCU: 0x153B8, offset: 0x153B8, size: 0x8, addend: 0x0, symName: __ZNSt3__16vectorINS0_IdNS_9allocatorIdEEEENS1_IS3_EEE4backB7v160006Ev, symObjAddr: 0x1348, symBinAddr: 0x100002BE8, symSize: 0x1C }
  - { offsetInCU: 0x153DD, offset: 0x153DD, size: 0x8, addend: 0x0, symName: __ZN20MultiLayerPerceptron2bpENSt3__16vectorIdNS0_9allocatorIdEEEES4_, symObjAddr: 0x1364, symBinAddr: 0x100002C04, symSize: 0x61C }
  - { offsetInCU: 0x15568, offset: 0x15568, size: 0x8, addend: 0x0, symName: __ZNKSt3__16vectorIdNS_9allocatorIdEEE4sizeB7v160006Ev, symObjAddr: 0x1980, symBinAddr: 0x100003220, symSize: 0x28 }
  - { offsetInCU: 0x15592, offset: 0x15592, size: 0x8, addend: 0x0, symName: __ZNSt3__16vectorIdNS_9allocatorIdEEE12emplace_backIJdEEERdDpOT_, symObjAddr: 0x19A8, symBinAddr: 0x100003248, symSize: 0x74 }
  - { offsetInCU: 0x155D2, offset: 0x155D2, size: 0x8, addend: 0x0, symName: __ZNSt3__16vectorImNS_9allocatorImEEE4backB7v160006Ev, symObjAddr: 0x1A1C, symBinAddr: 0x1000032BC, symSize: 0x1C }
  - { offsetInCU: 0x155F7, offset: 0x155F7, size: 0x8, addend: 0x0, symName: __ZNKSt3__16vectorI10PerceptronNS_9allocatorIS1_EEE4sizeB7v160006Ev, symObjAddr: 0x1A38, symBinAddr: 0x1000032D8, symSize: 0x28 }
  - { offsetInCU: 0x1561C, offset: 0x1561C, size: 0x8, addend: 0x0, symName: __ZN10PerceptronD2Ev, symObjAddr: 0x1A60, symBinAddr: 0x100003300, symSize: 0x2C }
  - { offsetInCU: 0x15647, offset: 0x15647, size: 0x8, addend: 0x0, symName: __ZNKSt3__111__wrap_iterIPdE4baseB7v160006Ev, symObjAddr: 0x1AD4, symBinAddr: 0x100003374, symSize: 0x18 }
  - { offsetInCU: 0x1566C, offset: 0x1566C, size: 0x8, addend: 0x0, symName: __ZNSt3__16vectorIdNS_9allocatorIdEEEC2B7v160006Ev, symObjAddr: 0x1AEC, symBinAddr: 0x10000338C, symSize: 0x58 }
  - { offsetInCU: 0x1569F, offset: 0x1569F, size: 0x8, addend: 0x0, symName: __ZNSt3__117__compressed_pairIPdNS_9allocatorIdEEEC1B7v160006IDnNS_18__default_init_tagEEEOT_OT0_, symObjAddr: 0x1B44, symBinAddr: 0x1000033E4, symSize: 0x3C }
  - { offsetInCU: 0x156F6, offset: 0x156F6, size: 0x8, addend: 0x0, symName: __ZNSt3__117__compressed_pairIPdNS_9allocatorIdEEEC2B7v160006IDnNS_18__default_init_tagEEEOT_OT0_, symObjAddr: 0x1B9C, symBinAddr: 0x10000343C, symSize: 0x40 }
  - { offsetInCU: 0x1574D, offset: 0x1574D, size: 0x8, addend: 0x0, symName: __ZNSt3__122__compressed_pair_elemIPdLi0ELb0EEC2B7v160006IDnvEEOT_, symObjAddr: 0x1BDC, symBinAddr: 0x10000347C, symSize: 0x1C }
  - { offsetInCU: 0x1578E, offset: 0x1578E, size: 0x8, addend: 0x0, symName: __ZNSt3__122__compressed_pair_elemINS_9allocatorIdEELi1ELb1EEC2B7v160006ENS_18__default_init_tagE, symObjAddr: 0x1BF8, symBinAddr: 0x100003498, symSize: 0x2C }
  - { offsetInCU: 0x157C1, offset: 0x157C1, size: 0x8, addend: 0x0, symName: __ZNSt3__19allocatorIdEC2B7v160006Ev, symObjAddr: 0x1C24, symBinAddr: 0x1000034C4, symSize: 0x2C }
  - { offsetInCU: 0x157EA, offset: 0x157EA, size: 0x8, addend: 0x0, symName: __ZNSt3__116__non_trivial_ifILb1ENS_9allocatorIdEEEC2B7v160006Ev, symObjAddr: 0x1C50, symBinAddr: 0x1000034F0, symSize: 0x14 }
  - { offsetInCU: 0x15813, offset: 0x15813, size: 0x8, addend: 0x0, symName: __ZNSt3__16vectorIdNS_9allocatorIdEEED2B7v160006Ev, symObjAddr: 0x1C64, symBinAddr: 0x100003504, symSize: 0x44 }
  - { offsetInCU: 0x1583C, offset: 0x1583C, size: 0x8, addend: 0x0, symName: __ZNSt3__16vectorIdNS_9allocatorIdEEE16__destroy_vectorC1ERS3_, symObjAddr: 0x1CA8, symBinAddr: 0x100003548, symSize: 0x34 }
  - { offsetInCU: 0x15874, offset: 0x15874, size: 0x8, addend: 0x0, symName: __ZNSt3__16vectorIdNS_9allocatorIdEEE16__destroy_vectorclB7v160006Ev, symObjAddr: 0x1CDC, symBinAddr: 0x10000357C, symSize: 0x9C }
  - { offsetInCU: 0x15899, offset: 0x15899, size: 0x8, addend: 0x0, symName: __ZNSt3__16vectorIdNS_9allocatorIdEEE16__destroy_vectorC2ERS3_, symObjAddr: 0x1D78, symBinAddr: 0x100003618, symSize: 0x20 }
  - { offsetInCU: 0x158D1, offset: 0x158D1, size: 0x8, addend: 0x0, symName: __ZNKSt3__16vectorIdNS_9allocatorIdEEE17__annotate_deleteB7v160006Ev, symObjAddr: 0x1D98, symBinAddr: 0x100003638, symSize: 0xB8 }
  - { offsetInCU: 0x158F6, offset: 0x158F6, size: 0x8, addend: 0x0, symName: __ZNSt3__16vectorIdNS_9allocatorIdEEE7__clearB7v160006Ev, symObjAddr: 0x1E60, symBinAddr: 0x100003700, symSize: 0x28 }
  - { offsetInCU: 0x1591B, offset: 0x1591B, size: 0x8, addend: 0x0, symName: __ZNSt3__116allocator_traitsINS_9allocatorIdEEE10deallocateB7v160006ERS2_Pdm, symObjAddr: 0x1E88, symBinAddr: 0x100003728, symSize: 0x34 }
  - { offsetInCU: 0x1595D, offset: 0x1595D, size: 0x8, addend: 0x0, symName: __ZNSt3__16vectorIdNS_9allocatorIdEEE7__allocB7v160006Ev, symObjAddr: 0x1EBC, symBinAddr: 0x10000375C, symSize: 0x28 }
  - { offsetInCU: 0x15982, offset: 0x15982, size: 0x8, addend: 0x0, symName: __ZNKSt3__16vectorIdNS_9allocatorIdEEE8capacityB7v160006Ev, symObjAddr: 0x1EE4, symBinAddr: 0x100003784, symSize: 0x40 }
  - { offsetInCU: 0x159A7, offset: 0x159A7, size: 0x8, addend: 0x0, symName: __ZNKSt3__16vectorIdNS_9allocatorIdEEE31__annotate_contiguous_containerB7v160006EPKvS5_S5_S5_, symObjAddr: 0x1F24, symBinAddr: 0x1000037C4, symSize: 0x20 }
  - { offsetInCU: 0x159F8, offset: 0x159F8, size: 0x8, addend: 0x0, symName: __ZNKSt3__16vectorIdNS_9allocatorIdEEE4dataB7v160006Ev, symObjAddr: 0x1F44, symBinAddr: 0x1000037E4, symSize: 0x28 }
  - { offsetInCU: 0x15A1D, offset: 0x15A1D, size: 0x8, addend: 0x0, symName: __ZNSt3__16vectorIdNS_9allocatorIdEEE22__base_destruct_at_endB7v160006EPd, symObjAddr: 0x1F80, symBinAddr: 0x100003820, symSize: 0x8C }
  - { offsetInCU: 0x15A60, offset: 0x15A60, size: 0x8, addend: 0x0, symName: __ZNSt3__116allocator_traitsINS_9allocatorIdEEE7destroyB7v160006IdvEEvRS2_PT_, symObjAddr: 0x200C, symBinAddr: 0x1000038AC, symSize: 0x2C }
  - { offsetInCU: 0x15A9D, offset: 0x15A9D, size: 0x8, addend: 0x0, symName: __ZNSt3__19allocatorIdE7destroyB7v160006EPd, symObjAddr: 0x2038, symBinAddr: 0x1000038D8, symSize: 0x14 }
  - { offsetInCU: 0x15AD0, offset: 0x15AD0, size: 0x8, addend: 0x0, symName: __ZNSt3__19allocatorIdE10deallocateB7v160006EPdm, symObjAddr: 0x204C, symBinAddr: 0x1000038EC, symSize: 0x40 }
  - { offsetInCU: 0x15B11, offset: 0x15B11, size: 0x8, addend: 0x0, symName: __ZNSt3__117__compressed_pairIPdNS_9allocatorIdEEE6secondB7v160006Ev, symObjAddr: 0x21B4, symBinAddr: 0x100003A54, symSize: 0x24 }
  - { offsetInCU: 0x15B36, offset: 0x15B36, size: 0x8, addend: 0x0, symName: __ZNSt3__122__compressed_pair_elemINS_9allocatorIdEELi1ELb1EE5__getB7v160006Ev, symObjAddr: 0x21D8, symBinAddr: 0x100003A78, symSize: 0x14 }
  - { offsetInCU: 0x15B5B, offset: 0x15B5B, size: 0x8, addend: 0x0, symName: __ZNKSt3__16vectorIdNS_9allocatorIdEEE9__end_capB7v160006Ev, symObjAddr: 0x21EC, symBinAddr: 0x100003A8C, symSize: 0x28 }
  - { offsetInCU: 0x15B80, offset: 0x15B80, size: 0x8, addend: 0x0, symName: __ZNKSt3__117__compressed_pairIPdNS_9allocatorIdEEE5firstB7v160006Ev, symObjAddr: 0x2214, symBinAddr: 0x100003AB4, symSize: 0x24 }
  - { offsetInCU: 0x15BA5, offset: 0x15BA5, size: 0x8, addend: 0x0, symName: __ZNKSt3__122__compressed_pair_elemIPdLi0ELb0EE5__getB7v160006Ev, symObjAddr: 0x2238, symBinAddr: 0x100003AD8, symSize: 0x14 }
  - { offsetInCU: 0x15BCA, offset: 0x15BCA, size: 0x8, addend: 0x0, symName: __ZNSt3__16vectorIdNS_9allocatorIdEEE8__appendEm, symObjAddr: 0x224C, symBinAddr: 0x100003AEC, symSize: 0x108 }
  - { offsetInCU: 0x15C23, offset: 0x15C23, size: 0x8, addend: 0x0, symName: __ZNSt3__16vectorIdNS_9allocatorIdEEE17__destruct_at_endB7v160006EPd, symObjAddr: 0x2354, symBinAddr: 0x100003BF4, symSize: 0x60 }
  - { offsetInCU: 0x15C66, offset: 0x15C66, size: 0x8, addend: 0x0, symName: __ZNSt3__16vectorIdNS_9allocatorIdEEE9__end_capB7v160006Ev, symObjAddr: 0x23B4, symBinAddr: 0x100003C54, symSize: 0x28 }
  - { offsetInCU: 0x15C8B, offset: 0x15C8B, size: 0x8, addend: 0x0, symName: __ZNSt3__16vectorIdNS_9allocatorIdEEE18__construct_at_endEm, symObjAddr: 0x23DC, symBinAddr: 0x100003C7C, symSize: 0xC8 }
  - { offsetInCU: 0x15CFB, offset: 0x15CFB, size: 0x8, addend: 0x0, symName: __ZNKSt3__16vectorIdNS_9allocatorIdEEE11__recommendB7v160006Em, symObjAddr: 0x24A4, symBinAddr: 0x100003D44, symSize: 0xB4 }
  - { offsetInCU: 0x15D4E, offset: 0x15D4E, size: 0x8, addend: 0x0, symName: __ZNSt3__114__split_bufferIdRNS_9allocatorIdEEEC1EmmS3_, symObjAddr: 0x2558, symBinAddr: 0x100003DF8, symSize: 0x44 }
  - { offsetInCU: 0x15DA3, offset: 0x15DA3, size: 0x8, addend: 0x0, symName: __ZNSt3__114__split_bufferIdRNS_9allocatorIdEEE18__construct_at_endEm, symObjAddr: 0x259C, symBinAddr: 0x100003E3C, symSize: 0xB4 }
  - { offsetInCU: 0x15DE5, offset: 0x15DE5, size: 0x8, addend: 0x0, symName: __ZNSt3__114__split_bufferIdRNS_9allocatorIdEEED1Ev, symObjAddr: 0x2768, symBinAddr: 0x100004008, symSize: 0x2C }
  - { offsetInCU: 0x15E10, offset: 0x15E10, size: 0x8, addend: 0x0, symName: __ZNSt3__117__compressed_pairIPdNS_9allocatorIdEEE5firstB7v160006Ev, symObjAddr: 0x2794, symBinAddr: 0x100004034, symSize: 0x24 }
  - { offsetInCU: 0x15E35, offset: 0x15E35, size: 0x8, addend: 0x0, symName: __ZNSt3__122__compressed_pair_elemIPdLi0ELb0EE5__getB7v160006Ev, symObjAddr: 0x27B8, symBinAddr: 0x100004058, symSize: 0x14 }
  - { offsetInCU: 0x15E73, offset: 0x15E73, size: 0x8, addend: 0x0, symName: __ZNSt3__16vectorIdNS_9allocatorIdEEE21_ConstructTransactionC1B7v160006ERS3_m, symObjAddr: 0x27CC, symBinAddr: 0x10000406C, symSize: 0x3C }
  - { offsetInCU: 0x15EBA, offset: 0x15EBA, size: 0x8, addend: 0x0, symName: __ZNSt3__116allocator_traitsINS_9allocatorIdEEE9constructB7v160006IdJEvEEvRS2_PT_DpOT0_, symObjAddr: 0x2808, symBinAddr: 0x1000040A8, symSize: 0x2C }
  - { offsetInCU: 0x15EFC, offset: 0x15EFC, size: 0x8, addend: 0x0, symName: __ZNSt3__16vectorIdNS_9allocatorIdEEE21_ConstructTransactionD1B7v160006Ev, symObjAddr: 0x2834, symBinAddr: 0x1000040D4, symSize: 0x2C }
  - { offsetInCU: 0x15F25, offset: 0x15F25, size: 0x8, addend: 0x0, symName: __ZNSt3__16vectorIdNS_9allocatorIdEEE21_ConstructTransactionC2B7v160006ERS3_m, symObjAddr: 0x2860, symBinAddr: 0x100004100, symSize: 0x44 }
  - { offsetInCU: 0x15F6C, offset: 0x15F6C, size: 0x8, addend: 0x0, symName: __ZNSt3__19allocatorIdE9constructB7v160006IdJEEEvPT_DpOT0_, symObjAddr: 0x28A4, symBinAddr: 0x100004144, symSize: 0x20 }
  - { offsetInCU: 0x15FAD, offset: 0x15FAD, size: 0x8, addend: 0x0, symName: __ZNSt3__16vectorIdNS_9allocatorIdEEE21_ConstructTransactionD2B7v160006Ev, symObjAddr: 0x28C4, symBinAddr: 0x100004164, symSize: 0x20 }
  - { offsetInCU: 0x15FD6, offset: 0x15FD6, size: 0x8, addend: 0x0, symName: __ZNKSt3__16vectorIdNS_9allocatorIdEEE8max_sizeEv, symObjAddr: 0x28E4, symBinAddr: 0x100004184, symSize: 0x60 }
  - { offsetInCU: 0x15FFC, offset: 0x15FFC, size: 0x8, addend: 0x0, symName: __ZNKSt3__16vectorIdNS_9allocatorIdEEE20__throw_length_errorB7v160006Ev, symObjAddr: 0x2944, symBinAddr: 0x1000041E4, symSize: 0x1C }
  - { offsetInCU: 0x1602B, offset: 0x1602B, size: 0x8, addend: 0x0, symName: __ZNSt3__116allocator_traitsINS_9allocatorIdEEE8max_sizeB7v160006IS2_vEEmRKS2_, symObjAddr: 0x29B8, symBinAddr: 0x100004258, symSize: 0x24 }
  - { offsetInCU: 0x16059, offset: 0x16059, size: 0x8, addend: 0x0, symName: __ZNKSt3__16vectorIdNS_9allocatorIdEEE7__allocB7v160006Ev, symObjAddr: 0x29DC, symBinAddr: 0x10000427C, symSize: 0x28 }
  - { offsetInCU: 0x1607E, offset: 0x1607E, size: 0x8, addend: 0x0, symName: __ZNSt3__114numeric_limitsIlE3maxB7v160006Ev, symObjAddr: 0x2A04, symBinAddr: 0x1000042A4, symSize: 0x14 }
  - { offsetInCU: 0x1609C, offset: 0x1609C, size: 0x8, addend: 0x0, symName: __ZNKSt3__16__lessImmEclB7v160006ERKmS3_, symObjAddr: 0x2A6C, symBinAddr: 0x10000430C, symSize: 0x34 }
  - { offsetInCU: 0x160DD, offset: 0x160DD, size: 0x8, addend: 0x0, symName: __ZNKSt3__19allocatorIdE8max_sizeB7v160006Ev, symObjAddr: 0x2AA0, symBinAddr: 0x100004340, symSize: 0x14 }
  - { offsetInCU: 0x16102, offset: 0x16102, size: 0x8, addend: 0x0, symName: __ZNKSt3__117__compressed_pairIPdNS_9allocatorIdEEE6secondB7v160006Ev, symObjAddr: 0x2AB4, symBinAddr: 0x100004354, symSize: 0x24 }
  - { offsetInCU: 0x16127, offset: 0x16127, size: 0x8, addend: 0x0, symName: __ZNKSt3__122__compressed_pair_elemINS_9allocatorIdEELi1ELb1EE5__getB7v160006Ev, symObjAddr: 0x2AD8, symBinAddr: 0x100004378, symSize: 0x14 }
  - { offsetInCU: 0x1614C, offset: 0x1614C, size: 0x8, addend: 0x0, symName: __ZNSt3__123__libcpp_numeric_limitsIlLb1EE3maxB7v160006Ev, symObjAddr: 0x2AEC, symBinAddr: 0x10000438C, symSize: 0x8 }
  - { offsetInCU: 0x16160, offset: 0x16160, size: 0x8, addend: 0x0, symName: __ZNSt12length_errorC1B7v160006EPKc, symObjAddr: 0x2B58, symBinAddr: 0x1000043F8, symSize: 0x34 }
  - { offsetInCU: 0x16197, offset: 0x16197, size: 0x8, addend: 0x0, symName: __ZNSt12length_errorC2B7v160006EPKc, symObjAddr: 0x2B8C, symBinAddr: 0x10000442C, symSize: 0x4C }
  - { offsetInCU: 0x161CE, offset: 0x161CE, size: 0x8, addend: 0x0, symName: __ZNSt3__114__split_bufferIdRNS_9allocatorIdEEEC2EmmS3_, symObjAddr: 0x2C2C, symBinAddr: 0x1000044CC, symSize: 0xD4 }
  - { offsetInCU: 0x16240, offset: 0x16240, size: 0x8, addend: 0x0, symName: __ZNSt3__117__compressed_pairIPdRNS_9allocatorIdEEEC1B7v160006IDnS4_EEOT_OT0_, symObjAddr: 0x2D00, symBinAddr: 0x1000045A0, symSize: 0x3C }
  - { offsetInCU: 0x16297, offset: 0x16297, size: 0x8, addend: 0x0, symName: __ZNSt3__114__split_bufferIdRNS_9allocatorIdEEE7__allocB7v160006Ev, symObjAddr: 0x2D7C, symBinAddr: 0x10000461C, symSize: 0x28 }
  - { offsetInCU: 0x162BC, offset: 0x162BC, size: 0x8, addend: 0x0, symName: __ZNSt3__114__split_bufferIdRNS_9allocatorIdEEE9__end_capB7v160006Ev, symObjAddr: 0x2DA4, symBinAddr: 0x100004644, symSize: 0x28 }
  - { offsetInCU: 0x162E1, offset: 0x162E1, size: 0x8, addend: 0x0, symName: __ZNSt3__117__compressed_pairIPdRNS_9allocatorIdEEEC2B7v160006IDnS4_EEOT_OT0_, symObjAddr: 0x2DCC, symBinAddr: 0x10000466C, symSize: 0x48 }
  - { offsetInCU: 0x16338, offset: 0x16338, size: 0x8, addend: 0x0, symName: __ZNSt3__122__compressed_pair_elemIRNS_9allocatorIdEELi1ELb0EEC2B7v160006IS3_vEEOT_, symObjAddr: 0x2E14, symBinAddr: 0x1000046B4, symSize: 0x20 }
  - { offsetInCU: 0x16379, offset: 0x16379, size: 0x8, addend: 0x0, symName: __ZNSt3__19allocatorIdE8allocateB7v160006Em, symObjAddr: 0x2E34, symBinAddr: 0x1000046D4, symSize: 0x58 }
  - { offsetInCU: 0x163AC, offset: 0x163AC, size: 0x8, addend: 0x0, symName: __ZNSt3__117__compressed_pairIPdRNS_9allocatorIdEEE6secondB7v160006Ev, symObjAddr: 0x2F70, symBinAddr: 0x100004810, symSize: 0x28 }
  - { offsetInCU: 0x163D1, offset: 0x163D1, size: 0x8, addend: 0x0, symName: __ZNSt3__122__compressed_pair_elemIRNS_9allocatorIdEELi1ELb0EE5__getB7v160006Ev, symObjAddr: 0x2F98, symBinAddr: 0x100004838, symSize: 0x18 }
  - { offsetInCU: 0x163F6, offset: 0x163F6, size: 0x8, addend: 0x0, symName: __ZNSt3__117__compressed_pairIPdRNS_9allocatorIdEEE5firstB7v160006Ev, symObjAddr: 0x2FB0, symBinAddr: 0x100004850, symSize: 0x24 }
  - { offsetInCU: 0x16425, offset: 0x16425, size: 0x8, addend: 0x0, symName: __ZNSt3__114__split_bufferIdRNS_9allocatorIdEEE21_ConstructTransactionC1B7v160006EPPdm, symObjAddr: 0x2FD4, symBinAddr: 0x100004874, symSize: 0x3C }
  - { offsetInCU: 0x1646A, offset: 0x1646A, size: 0x8, addend: 0x0, symName: __ZNSt3__114__split_bufferIdRNS_9allocatorIdEEE21_ConstructTransactionD1B7v160006Ev, symObjAddr: 0x3010, symBinAddr: 0x1000048B0, symSize: 0x2C }
  - { offsetInCU: 0x16493, offset: 0x16493, size: 0x8, addend: 0x0, symName: __ZNSt3__114__split_bufferIdRNS_9allocatorIdEEE21_ConstructTransactionC2B7v160006EPPdm, symObjAddr: 0x303C, symBinAddr: 0x1000048DC, symSize: 0x44 }
  - { offsetInCU: 0x164D8, offset: 0x164D8, size: 0x8, addend: 0x0, symName: __ZNSt3__114__split_bufferIdRNS_9allocatorIdEEE21_ConstructTransactionD2B7v160006Ev, symObjAddr: 0x3080, symBinAddr: 0x100004920, symSize: 0x20 }
  - { offsetInCU: 0x16501, offset: 0x16501, size: 0x8, addend: 0x0, symName: __ZNSt3__116reverse_iteratorIPdEC1B7v160006ES1_, symObjAddr: 0x3118, symBinAddr: 0x1000049B8, symSize: 0x34 }
  - { offsetInCU: 0x16538, offset: 0x16538, size: 0x8, addend: 0x0, symName: __ZNKSt3__116reverse_iteratorIPdE4baseB7v160006Ev, symObjAddr: 0x314C, symBinAddr: 0x1000049EC, symSize: 0x18 }
  - { offsetInCU: 0x1655D, offset: 0x1655D, size: 0x8, addend: 0x0, symName: __ZNKSt3__16vectorIdNS_9allocatorIdEEE14__annotate_newB7v160006Em, symObjAddr: 0x31A0, symBinAddr: 0x100004A40, symSize: 0xAC }
  - { offsetInCU: 0x165B4, offset: 0x165B4, size: 0x8, addend: 0x0, symName: __ZNKSt3__111__move_loopINS_17_ClassicAlgPolicyEEclB7v160006INS_16reverse_iteratorIPdEES6_S6_EENS_4pairIT_T1_EES8_T0_S9_, symObjAddr: 0x354C, symBinAddr: 0x100004DEC, symSize: 0xA0 }
  - { offsetInCU: 0x1661E, offset: 0x1661E, size: 0x8, addend: 0x0, symName: __ZNSt3__18_IterOpsINS_17_ClassicAlgPolicyEE11__iter_moveB7v160006IRNS_16reverse_iteratorIPdEEEENS_9enable_ifIXsr12is_referenceIDTdeclsr3stdE7declvalIRT_EEEEE5valueEDTclsr3stdE4movedeclsr3stdE7declvalISA_EEEEE4typeEOS9_, symObjAddr: 0x3780, symBinAddr: 0x100005020, symSize: 0x28 }
  - { offsetInCU: 0x1664A, offset: 0x1664A, size: 0x8, addend: 0x0, symName: __ZNKSt3__116reverse_iteratorIPdEdeB7v160006Ev, symObjAddr: 0x37A8, symBinAddr: 0x100005048, symSize: 0x28 }
  - { offsetInCU: 0x1667D, offset: 0x1667D, size: 0x8, addend: 0x0, symName: __ZNSt3__116reverse_iteratorIPdEppB7v160006Ev, symObjAddr: 0x37D0, symBinAddr: 0x100005070, symSize: 0x20 }
  - { offsetInCU: 0x166A2, offset: 0x166A2, size: 0x8, addend: 0x0, symName: __ZNSt3__18_IterOpsINS_17_ClassicAlgPolicyEE25__validate_iter_referenceB7v160006IRNS_16reverse_iteratorIPdEEEEvv, symObjAddr: 0x37F0, symBinAddr: 0x100005090, symSize: 0x4 }
  - { offsetInCU: 0x166C0, offset: 0x166C0, size: 0x8, addend: 0x0, symName: __ZNSt3__118__unwrap_iter_implINS_16reverse_iteratorIPdEELb0EE8__unwrapB7v160006ES3_, symObjAddr: 0x37F4, symBinAddr: 0x100005094, symSize: 0x24 }
  - { offsetInCU: 0x166E8, offset: 0x166E8, size: 0x8, addend: 0x0, symName: __ZNSt3__14pairINS_16reverse_iteratorIPdEES3_EC1B7v160006IS3_S3_LPv0EEEOT_OT0_, symObjAddr: 0x3818, symBinAddr: 0x1000050B8, symSize: 0x3C }
  - { offsetInCU: 0x16745, offset: 0x16745, size: 0x8, addend: 0x0, symName: __ZNSt3__14pairINS_16reverse_iteratorIPdEES3_EC2B7v160006IS3_S3_LPv0EEEOT_OT0_, symObjAddr: 0x3854, symBinAddr: 0x1000050F4, symSize: 0x34 }
  - { offsetInCU: 0x167A2, offset: 0x167A2, size: 0x8, addend: 0x0, symName: __ZNSt3__118__unwrap_iter_implINS_16reverse_iteratorIPdEELb0EE8__rewrapB7v160006ES3_S3_, symObjAddr: 0x3888, symBinAddr: 0x100005128, symSize: 0x2C }
  - { offsetInCU: 0x167CF, offset: 0x167CF, size: 0x8, addend: 0x0, symName: __ZNSt3__116reverse_iteratorIPdEC2B7v160006ES1_, symObjAddr: 0x38B4, symBinAddr: 0x100005154, symSize: 0x28 }
  - { offsetInCU: 0x16806, offset: 0x16806, size: 0x8, addend: 0x0, symName: __ZNSt3__114__split_bufferIdRNS_9allocatorIdEEED2Ev, symObjAddr: 0x38DC, symBinAddr: 0x10000517C, symSize: 0x8C }
  - { offsetInCU: 0x16831, offset: 0x16831, size: 0x8, addend: 0x0, symName: __ZNSt3__114__split_bufferIdRNS_9allocatorIdEEE5clearB7v160006Ev, symObjAddr: 0x3968, symBinAddr: 0x100005208, symSize: 0x28 }
  - { offsetInCU: 0x16856, offset: 0x16856, size: 0x8, addend: 0x0, symName: __ZNKSt3__114__split_bufferIdRNS_9allocatorIdEEE8capacityB7v160006Ev, symObjAddr: 0x3990, symBinAddr: 0x100005230, symSize: 0x40 }
  - { offsetInCU: 0x1687B, offset: 0x1687B, size: 0x8, addend: 0x0, symName: __ZNSt3__114__split_bufferIdRNS_9allocatorIdEEE17__destruct_at_endB7v160006EPd, symObjAddr: 0x39D0, symBinAddr: 0x100005270, symSize: 0x2C }
  - { offsetInCU: 0x168AE, offset: 0x168AE, size: 0x8, addend: 0x0, symName: __ZNSt3__114__split_bufferIdRNS_9allocatorIdEEE17__destruct_at_endB7v160006EPdNS_17integral_constantIbLb0EEE, symObjAddr: 0x39FC, symBinAddr: 0x10000529C, symSize: 0x80 }
  - { offsetInCU: 0x168EC, offset: 0x168EC, size: 0x8, addend: 0x0, symName: __ZNKSt3__114__split_bufferIdRNS_9allocatorIdEEE9__end_capB7v160006Ev, symObjAddr: 0x3A7C, symBinAddr: 0x10000531C, symSize: 0x28 }
  - { offsetInCU: 0x16911, offset: 0x16911, size: 0x8, addend: 0x0, symName: __ZNKSt3__117__compressed_pairIPdRNS_9allocatorIdEEE5firstB7v160006Ev, symObjAddr: 0x3AA4, symBinAddr: 0x100005344, symSize: 0x24 }
  - { offsetInCU: 0x16936, offset: 0x16936, size: 0x8, addend: 0x0, symName: __ZNSt3__16vectorIdNS_9allocatorIdEEE27__invalidate_iterators_pastB7v160006EPd, symObjAddr: 0x3AC8, symBinAddr: 0x100005368, symSize: 0x14 }
  - { offsetInCU: 0x1696C, offset: 0x1696C, size: 0x8, addend: 0x0, symName: __ZNKSt3__16vectorIdNS_9allocatorIdEEE17__annotate_shrinkB7v160006Em, symObjAddr: 0x3ADC, symBinAddr: 0x10000537C, symSize: 0xB4 }
  - { offsetInCU: 0x169A0, offset: 0x169A0, size: 0x8, addend: 0x0, symName: __ZNSt3__16vectorIdNS_9allocatorIdEEE11__make_iterB7v160006EPd, symObjAddr: 0x3B90, symBinAddr: 0x100005430, symSize: 0x34 }
  - { offsetInCU: 0x169D4, offset: 0x169D4, size: 0x8, addend: 0x0, symName: __ZNSt3__111__wrap_iterIPdEC1B7v160006EPKvS1_, symObjAddr: 0x3BC4, symBinAddr: 0x100005464, symSize: 0x3C }
  - { offsetInCU: 0x16A19, offset: 0x16A19, size: 0x8, addend: 0x0, symName: __ZNSt3__111__wrap_iterIPdEC2B7v160006EPKvS1_, symObjAddr: 0x3C00, symBinAddr: 0x1000054A0, symSize: 0x24 }
  - { offsetInCU: 0x16A5E, offset: 0x16A5E, size: 0x8, addend: 0x0, symName: __ZNSt3__16vectorIdNS_9allocatorIdEEE22__construct_one_at_endB7v160006IJRKdEEEvDpOT_, symObjAddr: 0x3C24, symBinAddr: 0x1000054C4, symSize: 0x90 }
  - { offsetInCU: 0x16AAC, offset: 0x16AAC, size: 0x8, addend: 0x0, symName: __ZNSt3__16vectorIdNS_9allocatorIdEEE21__push_back_slow_pathIRKdEEvOT_, symObjAddr: 0x3CB4, symBinAddr: 0x100005554, symSize: 0xD8 }
  - { offsetInCU: 0x16B08, offset: 0x16B08, size: 0x8, addend: 0x0, symName: __ZNSt3__116allocator_traitsINS_9allocatorIdEEE9constructB7v160006IdJRKdEvEEvRS2_PT_DpOT0_, symObjAddr: 0x3D8C, symBinAddr: 0x10000562C, symSize: 0x34 }
  - { offsetInCU: 0x16B5F, offset: 0x16B5F, size: 0x8, addend: 0x0, symName: __ZNSt3__19allocatorIdE9constructB7v160006IdJRKdEEEvPT_DpOT0_, symObjAddr: 0x3DC0, symBinAddr: 0x100005660, symSize: 0x28 }
  - { offsetInCU: 0x16BB4, offset: 0x16BB4, size: 0x8, addend: 0x0, symName: __ZNSt3__16vectorIdNS_9allocatorIdEEE19__copy_assign_allocB7v160006ERKS3_, symObjAddr: 0x3DE8, symBinAddr: 0x100005688, symSize: 0x2C }
  - { offsetInCU: 0x16BE8, offset: 0x16BE8, size: 0x8, addend: 0x0, symName: __ZNSt3__16vectorIdNS_9allocatorIdEEE6assignIPdLi0EEEvT_S6_, symObjAddr: 0x3E14, symBinAddr: 0x1000056B4, symSize: 0x17C }
  - { offsetInCU: 0x16C85, offset: 0x16C85, size: 0x8, addend: 0x0, symName: __ZNSt3__16vectorIdNS_9allocatorIdEEE19__copy_assign_allocB7v160006ERKS3_NS_17integral_constantIbLb0EEE, symObjAddr: 0x3F90, symBinAddr: 0x100005830, symSize: 0x14 }
  - { offsetInCU: 0x16CC0, offset: 0x16CC0, size: 0x8, addend: 0x0, symName: __ZNSt3__16vectorIdNS_9allocatorIdEEE18__construct_at_endIPdLi0EEEvT_S6_m, symObjAddr: 0x4060, symBinAddr: 0x100005900, symSize: 0x8C }
  - { offsetInCU: 0x16D31, offset: 0x16D31, size: 0x8, addend: 0x0, symName: __ZNSt3__16vectorIdNS_9allocatorIdEEE13__vdeallocateEv, symObjAddr: 0x40EC, symBinAddr: 0x10000598C, symSize: 0x8C }
  - { offsetInCU: 0x16D57, offset: 0x16D57, size: 0x8, addend: 0x0, symName: __ZNSt3__16vectorIdNS_9allocatorIdEEE11__vallocateB7v160006Em, symObjAddr: 0x4178, symBinAddr: 0x100005A18, symSize: 0xAC }
  - { offsetInCU: 0x16DBD, offset: 0x16DBD, size: 0x8, addend: 0x0, symName: __ZNKSt3__114__copy_trivialclB7v160006IddLi0EEENS_4pairIPT_PT0_EES4_S4_S6_, symObjAddr: 0x4424, symBinAddr: 0x100005CC4, symSize: 0x48 }
  - { offsetInCU: 0x16E29, offset: 0x16E29, size: 0x8, addend: 0x0, symName: __ZNSt3__14pairIPdS1_EC1B7v160006IRS1_S1_LPv0EEEOT_OT0_, symObjAddr: 0x45EC, symBinAddr: 0x100005E8C, symSize: 0x3C }
  - { offsetInCU: 0x16E86, offset: 0x16E86, size: 0x8, addend: 0x0, symName: __ZNSt3__14pairIPdS1_EC2B7v160006IRS1_S1_LPv0EEEOT_OT0_, symObjAddr: 0x4628, symBinAddr: 0x100005EC8, symSize: 0x34 }
  - { offsetInCU: 0x16EE3, offset: 0x16EE3, size: 0x8, addend: 0x0, symName: __ZNSt3__118__unwrap_iter_implIPdLb1EE8__unwrapB7v160006ES1_, symObjAddr: 0x465C, symBinAddr: 0x100005EFC, symSize: 0x24 }
  - { offsetInCU: 0x16F06, offset: 0x16F06, size: 0x8, addend: 0x0, symName: __ZNSt3__14pairIPdS1_EC1B7v160006IS1_S1_LPv0EEEOT_OT0_, symObjAddr: 0x4680, symBinAddr: 0x100005F20, symSize: 0x3C }
  - { offsetInCU: 0x16F63, offset: 0x16F63, size: 0x8, addend: 0x0, symName: __ZNSt3__14pairIPdS1_EC2B7v160006IS1_S1_LPv0EEEOT_OT0_, symObjAddr: 0x46BC, symBinAddr: 0x100005F5C, symSize: 0x34 }
  - { offsetInCU: 0x16FC0, offset: 0x16FC0, size: 0x8, addend: 0x0, symName: __ZNSt3__118__unwrap_iter_implIPdLb1EE8__rewrapB7v160006ES1_S1_, symObjAddr: 0x46F0, symBinAddr: 0x100005F90, symSize: 0x50 }
  - { offsetInCU: 0x16FF1, offset: 0x16FF1, size: 0x8, addend: 0x0, symName: __ZNSt3__129_AllocatorDestroyRangeReverseINS_9allocatorIdEEPdEC1B7v160006ERS2_RS3_S6_, symObjAddr: 0x4880, symBinAddr: 0x100006120, symSize: 0x44 }
  - { offsetInCU: 0x17047, offset: 0x17047, size: 0x8, addend: 0x0, symName: __ZNSt3__116allocator_traitsINS_9allocatorIdEEE9constructB7v160006IdJRdEvEEvRS2_PT_DpOT0_, symObjAddr: 0x48C4, symBinAddr: 0x100006164, symSize: 0x34 }
  - { offsetInCU: 0x1709E, offset: 0x1709E, size: 0x8, addend: 0x0, symName: __ZNSt3__128__exception_guard_exceptionsINS_29_AllocatorDestroyRangeReverseINS_9allocatorIdEEPdEEE10__completeB7v160006Ev, symObjAddr: 0x48F8, symBinAddr: 0x100006198, symSize: 0x1C }
  - { offsetInCU: 0x170C3, offset: 0x170C3, size: 0x8, addend: 0x0, symName: __ZNSt3__128__exception_guard_exceptionsINS_29_AllocatorDestroyRangeReverseINS_9allocatorIdEEPdEEED1B7v160006Ev, symObjAddr: 0x4914, symBinAddr: 0x1000061B4, symSize: 0x2C }
  - { offsetInCU: 0x170EC, offset: 0x170EC, size: 0x8, addend: 0x0, symName: __ZNSt3__128__exception_guard_exceptionsINS_29_AllocatorDestroyRangeReverseINS_9allocatorIdEEPdEEEC1B7v160006ES5_, symObjAddr: 0x4940, symBinAddr: 0x1000061E0, symSize: 0x34 }
  - { offsetInCU: 0x17124, offset: 0x17124, size: 0x8, addend: 0x0, symName: __ZNSt3__128__exception_guard_exceptionsINS_29_AllocatorDestroyRangeReverseINS_9allocatorIdEEPdEEEC2B7v160006ES5_, symObjAddr: 0x4974, symBinAddr: 0x100006214, symSize: 0x30 }
  - { offsetInCU: 0x1715C, offset: 0x1715C, size: 0x8, addend: 0x0, symName: __ZNSt3__129_AllocatorDestroyRangeReverseINS_9allocatorIdEEPdEC2B7v160006ERS2_RS3_S6_, symObjAddr: 0x49A4, symBinAddr: 0x100006244, symSize: 0x38 }
  - { offsetInCU: 0x171B2, offset: 0x171B2, size: 0x8, addend: 0x0, symName: __ZNSt3__19allocatorIdE9constructB7v160006IdJRdEEEvPT_DpOT0_, symObjAddr: 0x49DC, symBinAddr: 0x10000627C, symSize: 0x28 }
  - { offsetInCU: 0x17207, offset: 0x17207, size: 0x8, addend: 0x0, symName: __ZNSt3__128__exception_guard_exceptionsINS_29_AllocatorDestroyRangeReverseINS_9allocatorIdEEPdEEED2B7v160006Ev, symObjAddr: 0x4A04, symBinAddr: 0x1000062A4, symSize: 0x50 }
  - { offsetInCU: 0x17230, offset: 0x17230, size: 0x8, addend: 0x0, symName: __ZNKSt3__129_AllocatorDestroyRangeReverseINS_9allocatorIdEEPdEclB7v160006Ev, symObjAddr: 0x4A54, symBinAddr: 0x1000062F4, symSize: 0x68 }
  - { offsetInCU: 0x1725A, offset: 0x1725A, size: 0x8, addend: 0x0, symName: __ZNSt3__119__to_address_helperINS_16reverse_iteratorIPdEEvE6__callB7v160006ERKS3_, symObjAddr: 0x4B50, symBinAddr: 0x1000063F0, symSize: 0x38 }
  - { offsetInCU: 0x1727D, offset: 0x1727D, size: 0x8, addend: 0x0, symName: __ZNKSt3__116reverse_iteratorIPdEptB7v160006Ev, symObjAddr: 0x4B88, symBinAddr: 0x100006428, symSize: 0x24 }
  - { offsetInCU: 0x172A2, offset: 0x172A2, size: 0x8, addend: 0x0, symName: __ZNSt3__16vectorIdNS_9allocatorIdEEE5clearB7v160006Ev, symObjAddr: 0x4BAC, symBinAddr: 0x10000644C, symSize: 0x4C }
  - { offsetInCU: 0x172D6, offset: 0x172D6, size: 0x8, addend: 0x0, symName: __ZNSt3__16vectorImNS_9allocatorImEEEC2B7v160006Ev, symObjAddr: 0x4BF8, symBinAddr: 0x100006498, symSize: 0x58 }
  - { offsetInCU: 0x172FF, offset: 0x172FF, size: 0x8, addend: 0x0, symName: __ZNSt3__117__compressed_pairIPmNS_9allocatorImEEEC1B7v160006IDnNS_18__default_init_tagEEEOT_OT0_, symObjAddr: 0x4C50, symBinAddr: 0x1000064F0, symSize: 0x3C }
  - { offsetInCU: 0x17356, offset: 0x17356, size: 0x8, addend: 0x0, symName: __ZNSt3__117__compressed_pairIPmNS_9allocatorImEEEC2B7v160006IDnNS_18__default_init_tagEEEOT_OT0_, symObjAddr: 0x4C9C, symBinAddr: 0x10000653C, symSize: 0x40 }
  - { offsetInCU: 0x173AD, offset: 0x173AD, size: 0x8, addend: 0x0, symName: __ZNSt3__122__compressed_pair_elemIPmLi0ELb0EEC2B7v160006IDnvEEOT_, symObjAddr: 0x4CDC, symBinAddr: 0x10000657C, symSize: 0x1C }
  - { offsetInCU: 0x173EE, offset: 0x173EE, size: 0x8, addend: 0x0, symName: __ZNSt3__122__compressed_pair_elemINS_9allocatorImEELi1ELb1EEC2B7v160006ENS_18__default_init_tagE, symObjAddr: 0x4CF8, symBinAddr: 0x100006598, symSize: 0x2C }
  - { offsetInCU: 0x17421, offset: 0x17421, size: 0x8, addend: 0x0, symName: __ZNSt3__19allocatorImEC2B7v160006Ev, symObjAddr: 0x4D24, symBinAddr: 0x1000065C4, symSize: 0x2C }
  - { offsetInCU: 0x1744A, offset: 0x1744A, size: 0x8, addend: 0x0, symName: __ZNSt3__116__non_trivial_ifILb1ENS_9allocatorImEEEC2B7v160006Ev, symObjAddr: 0x4D50, symBinAddr: 0x1000065F0, symSize: 0x14 }
  - { offsetInCU: 0x17473, offset: 0x17473, size: 0x8, addend: 0x0, symName: __ZNSt3__16vectorINS0_I10PerceptronNS_9allocatorIS1_EEEENS2_IS4_EEEC2B7v160006Ev, symObjAddr: 0x4D64, symBinAddr: 0x100006604, symSize: 0x58 }
  - { offsetInCU: 0x1749C, offset: 0x1749C, size: 0x8, addend: 0x0, symName: __ZNSt3__117__compressed_pairIPNS_6vectorI10PerceptronNS_9allocatorIS2_EEEENS3_IS5_EEEC1B7v160006IDnNS_18__default_init_tagEEEOT_OT0_, symObjAddr: 0x4DBC, symBinAddr: 0x10000665C, symSize: 0x3C }
  - { offsetInCU: 0x174F3, offset: 0x174F3, size: 0x8, addend: 0x0, symName: __ZNSt3__117__compressed_pairIPNS_6vectorI10PerceptronNS_9allocatorIS2_EEEENS3_IS5_EEEC2B7v160006IDnNS_18__default_init_tagEEEOT_OT0_, symObjAddr: 0x4E08, symBinAddr: 0x1000066A8, symSize: 0x40 }
  - { offsetInCU: 0x1754A, offset: 0x1754A, size: 0x8, addend: 0x0, symName: __ZNSt3__122__compressed_pair_elemIPNS_6vectorI10PerceptronNS_9allocatorIS2_EEEELi0ELb0EEC2B7v160006IDnvEEOT_, symObjAddr: 0x4E48, symBinAddr: 0x1000066E8, symSize: 0x1C }
  - { offsetInCU: 0x1758B, offset: 0x1758B, size: 0x8, addend: 0x0, symName: __ZNSt3__122__compressed_pair_elemINS_9allocatorINS_6vectorI10PerceptronNS1_IS3_EEEEEELi1ELb1EEC2B7v160006ENS_18__default_init_tagE, symObjAddr: 0x4E64, symBinAddr: 0x100006704, symSize: 0x2C }
  - { offsetInCU: 0x175BE, offset: 0x175BE, size: 0x8, addend: 0x0, symName: __ZNSt3__19allocatorINS_6vectorI10PerceptronNS0_IS2_EEEEEC2B7v160006Ev, symObjAddr: 0x4E90, symBinAddr: 0x100006730, symSize: 0x2C }
  - { offsetInCU: 0x175E7, offset: 0x175E7, size: 0x8, addend: 0x0, symName: __ZNSt3__116__non_trivial_ifILb1ENS_9allocatorINS_6vectorI10PerceptronNS1_IS3_EEEEEEEC2B7v160006Ev, symObjAddr: 0x4EBC, symBinAddr: 0x10000675C, symSize: 0x14 }
  - { offsetInCU: 0x17610, offset: 0x17610, size: 0x8, addend: 0x0, symName: __ZNSt3__16vectorINS0_IdNS_9allocatorIdEEEENS1_IS3_EEEC2B7v160006Ev, symObjAddr: 0x4ED0, symBinAddr: 0x100006770, symSize: 0x58 }
  - { offsetInCU: 0x17639, offset: 0x17639, size: 0x8, addend: 0x0, symName: __ZNSt3__117__compressed_pairIPNS_6vectorIdNS_9allocatorIdEEEENS2_IS4_EEEC1B7v160006IDnNS_18__default_init_tagEEEOT_OT0_, symObjAddr: 0x4F28, symBinAddr: 0x1000067C8, symSize: 0x3C }
  - { offsetInCU: 0x17690, offset: 0x17690, size: 0x8, addend: 0x0, symName: __ZNSt3__117__compressed_pairIPNS_6vectorIdNS_9allocatorIdEEEENS2_IS4_EEEC2B7v160006IDnNS_18__default_init_tagEEEOT_OT0_, symObjAddr: 0x4F74, symBinAddr: 0x100006814, symSize: 0x40 }
  - { offsetInCU: 0x176E7, offset: 0x176E7, size: 0x8, addend: 0x0, symName: __ZNSt3__122__compressed_pair_elemIPNS_6vectorIdNS_9allocatorIdEEEELi0ELb0EEC2B7v160006IDnvEEOT_, symObjAddr: 0x4FB4, symBinAddr: 0x100006854, symSize: 0x1C }
  - { offsetInCU: 0x17728, offset: 0x17728, size: 0x8, addend: 0x0, symName: __ZNSt3__122__compressed_pair_elemINS_9allocatorINS_6vectorIdNS1_IdEEEEEELi1ELb1EEC2B7v160006ENS_18__default_init_tagE, symObjAddr: 0x4FD0, symBinAddr: 0x100006870, symSize: 0x2C }
  - { offsetInCU: 0x1775B, offset: 0x1775B, size: 0x8, addend: 0x0, symName: __ZNSt3__19allocatorINS_6vectorIdNS0_IdEEEEEC2B7v160006Ev, symObjAddr: 0x4FFC, symBinAddr: 0x10000689C, symSize: 0x2C }
  - { offsetInCU: 0x17784, offset: 0x17784, size: 0x8, addend: 0x0, symName: __ZNSt3__116__non_trivial_ifILb1ENS_9allocatorINS_6vectorIdNS1_IdEEEEEEEC2B7v160006Ev, symObjAddr: 0x5028, symBinAddr: 0x1000068C8, symSize: 0x14 }
  - { offsetInCU: 0x177AD, offset: 0x177AD, size: 0x8, addend: 0x0, symName: __ZNSt3__16vectorImNS_9allocatorImEEED2B7v160006Ev, symObjAddr: 0x503C, symBinAddr: 0x1000068DC, symSize: 0x44 }
  - { offsetInCU: 0x177D6, offset: 0x177D6, size: 0x8, addend: 0x0, symName: __ZNSt3__16vectorImNS_9allocatorImEEE16__destroy_vectorC1ERS3_, symObjAddr: 0x5080, symBinAddr: 0x100006920, symSize: 0x34 }
  - { offsetInCU: 0x1780E, offset: 0x1780E, size: 0x8, addend: 0x0, symName: __ZNSt3__16vectorImNS_9allocatorImEEE16__destroy_vectorclB7v160006Ev, symObjAddr: 0x50B4, symBinAddr: 0x100006954, symSize: 0x9C }
  - { offsetInCU: 0x17833, offset: 0x17833, size: 0x8, addend: 0x0, symName: __ZNSt3__16vectorImNS_9allocatorImEEE16__destroy_vectorC2ERS3_, symObjAddr: 0x5150, symBinAddr: 0x1000069F0, symSize: 0x20 }
  - { offsetInCU: 0x1786B, offset: 0x1786B, size: 0x8, addend: 0x0, symName: __ZNKSt3__16vectorImNS_9allocatorImEEE17__annotate_deleteB7v160006Ev, symObjAddr: 0x5170, symBinAddr: 0x100006A10, symSize: 0xB8 }
  - { offsetInCU: 0x17890, offset: 0x17890, size: 0x8, addend: 0x0, symName: __ZNSt3__16vectorImNS_9allocatorImEEE7__clearB7v160006Ev, symObjAddr: 0x5238, symBinAddr: 0x100006AD8, symSize: 0x28 }
  - { offsetInCU: 0x178B5, offset: 0x178B5, size: 0x8, addend: 0x0, symName: __ZNSt3__116allocator_traitsINS_9allocatorImEEE10deallocateB7v160006ERS2_Pmm, symObjAddr: 0x5260, symBinAddr: 0x100006B00, symSize: 0x34 }
  - { offsetInCU: 0x178F7, offset: 0x178F7, size: 0x8, addend: 0x0, symName: __ZNSt3__16vectorImNS_9allocatorImEEE7__allocB7v160006Ev, symObjAddr: 0x5294, symBinAddr: 0x100006B34, symSize: 0x28 }
  - { offsetInCU: 0x1791C, offset: 0x1791C, size: 0x8, addend: 0x0, symName: __ZNKSt3__16vectorImNS_9allocatorImEEE8capacityB7v160006Ev, symObjAddr: 0x52BC, symBinAddr: 0x100006B5C, symSize: 0x40 }
  - { offsetInCU: 0x17941, offset: 0x17941, size: 0x8, addend: 0x0, symName: __ZNKSt3__16vectorImNS_9allocatorImEEE31__annotate_contiguous_containerB7v160006EPKvS5_S5_S5_, symObjAddr: 0x52FC, symBinAddr: 0x100006B9C, symSize: 0x20 }
  - { offsetInCU: 0x17992, offset: 0x17992, size: 0x8, addend: 0x0, symName: __ZNKSt3__16vectorImNS_9allocatorImEEE4dataB7v160006Ev, symObjAddr: 0x531C, symBinAddr: 0x100006BBC, symSize: 0x28 }
  - { offsetInCU: 0x179B7, offset: 0x179B7, size: 0x8, addend: 0x0, symName: __ZNSt3__16vectorImNS_9allocatorImEEE22__base_destruct_at_endB7v160006EPm, symObjAddr: 0x5358, symBinAddr: 0x100006BF8, symSize: 0x8C }
  - { offsetInCU: 0x179FA, offset: 0x179FA, size: 0x8, addend: 0x0, symName: __ZNSt3__116allocator_traitsINS_9allocatorImEEE7destroyB7v160006ImvEEvRS2_PT_, symObjAddr: 0x53E4, symBinAddr: 0x100006C84, symSize: 0x2C }
  - { offsetInCU: 0x17A37, offset: 0x17A37, size: 0x8, addend: 0x0, symName: __ZNSt3__19allocatorImE7destroyB7v160006EPm, symObjAddr: 0x5410, symBinAddr: 0x100006CB0, symSize: 0x14 }
  - { offsetInCU: 0x17A6A, offset: 0x17A6A, size: 0x8, addend: 0x0, symName: __ZNSt3__19allocatorImE10deallocateB7v160006EPmm, symObjAddr: 0x5424, symBinAddr: 0x100006CC4, symSize: 0x40 }
  - { offsetInCU: 0x17AAB, offset: 0x17AAB, size: 0x8, addend: 0x0, symName: __ZNSt3__117__compressed_pairIPmNS_9allocatorImEEE6secondB7v160006Ev, symObjAddr: 0x5464, symBinAddr: 0x100006D04, symSize: 0x24 }
  - { offsetInCU: 0x17AD0, offset: 0x17AD0, size: 0x8, addend: 0x0, symName: __ZNSt3__122__compressed_pair_elemINS_9allocatorImEELi1ELb1EE5__getB7v160006Ev, symObjAddr: 0x5488, symBinAddr: 0x100006D28, symSize: 0x14 }
  - { offsetInCU: 0x17AF5, offset: 0x17AF5, size: 0x8, addend: 0x0, symName: __ZNKSt3__16vectorImNS_9allocatorImEEE9__end_capB7v160006Ev, symObjAddr: 0x549C, symBinAddr: 0x100006D3C, symSize: 0x28 }
  - { offsetInCU: 0x17B1A, offset: 0x17B1A, size: 0x8, addend: 0x0, symName: __ZNKSt3__117__compressed_pairIPmNS_9allocatorImEEE5firstB7v160006Ev, symObjAddr: 0x54C4, symBinAddr: 0x100006D64, symSize: 0x24 }
  - { offsetInCU: 0x17B3F, offset: 0x17B3F, size: 0x8, addend: 0x0, symName: __ZNKSt3__122__compressed_pair_elemIPmLi0ELb0EE5__getB7v160006Ev, symObjAddr: 0x54E8, symBinAddr: 0x100006D88, symSize: 0x14 }
  - { offsetInCU: 0x17B64, offset: 0x17B64, size: 0x8, addend: 0x0, symName: __ZNSt3__16vectorINS0_I10PerceptronNS_9allocatorIS1_EEEENS2_IS4_EEED2B7v160006Ev, symObjAddr: 0x54FC, symBinAddr: 0x100006D9C, symSize: 0x44 }
  - { offsetInCU: 0x17B8D, offset: 0x17B8D, size: 0x8, addend: 0x0, symName: __ZNSt3__16vectorINS0_I10PerceptronNS_9allocatorIS1_EEEENS2_IS4_EEE16__destroy_vectorC1ERS6_, symObjAddr: 0x5540, symBinAddr: 0x100006DE0, symSize: 0x34 }
  - { offsetInCU: 0x17BC5, offset: 0x17BC5, size: 0x8, addend: 0x0, symName: __ZNSt3__16vectorINS0_I10PerceptronNS_9allocatorIS1_EEEENS2_IS4_EEE16__destroy_vectorclB7v160006Ev, symObjAddr: 0x5574, symBinAddr: 0x100006E14, symSize: 0x9C }
  - { offsetInCU: 0x17BEA, offset: 0x17BEA, size: 0x8, addend: 0x0, symName: __ZNSt3__16vectorINS0_I10PerceptronNS_9allocatorIS1_EEEENS2_IS4_EEE16__destroy_vectorC2ERS6_, symObjAddr: 0x5610, symBinAddr: 0x100006EB0, symSize: 0x20 }
  - { offsetInCU: 0x17C22, offset: 0x17C22, size: 0x8, addend: 0x0, symName: __ZNKSt3__16vectorINS0_I10PerceptronNS_9allocatorIS1_EEEENS2_IS4_EEE17__annotate_deleteB7v160006Ev, symObjAddr: 0x5630, symBinAddr: 0x100006ED0, symSize: 0xD4 }
  - { offsetInCU: 0x17C47, offset: 0x17C47, size: 0x8, addend: 0x0, symName: __ZNSt3__16vectorINS0_I10PerceptronNS_9allocatorIS1_EEEENS2_IS4_EEE7__clearB7v160006Ev, symObjAddr: 0x5714, symBinAddr: 0x100006FB4, symSize: 0x28 }
  - { offsetInCU: 0x17C6C, offset: 0x17C6C, size: 0x8, addend: 0x0, symName: __ZNSt3__116allocator_traitsINS_9allocatorINS_6vectorI10PerceptronNS1_IS3_EEEEEEE10deallocateB7v160006ERS6_PS5_m, symObjAddr: 0x573C, symBinAddr: 0x100006FDC, symSize: 0x34 }
  - { offsetInCU: 0x17CAE, offset: 0x17CAE, size: 0x8, addend: 0x0, symName: __ZNSt3__16vectorINS0_I10PerceptronNS_9allocatorIS1_EEEENS2_IS4_EEE7__allocB7v160006Ev, symObjAddr: 0x5770, symBinAddr: 0x100007010, symSize: 0x28 }
  - { offsetInCU: 0x17CD3, offset: 0x17CD3, size: 0x8, addend: 0x0, symName: __ZNKSt3__16vectorINS0_I10PerceptronNS_9allocatorIS1_EEEENS2_IS4_EEE8capacityB7v160006Ev, symObjAddr: 0x5798, symBinAddr: 0x100007038, symSize: 0x40 }
  - { offsetInCU: 0x17CF8, offset: 0x17CF8, size: 0x8, addend: 0x0, symName: __ZNKSt3__16vectorINS0_I10PerceptronNS_9allocatorIS1_EEEENS2_IS4_EEE31__annotate_contiguous_containerB7v160006EPKvS8_S8_S8_, symObjAddr: 0x57D8, symBinAddr: 0x100007078, symSize: 0x20 }
  - { offsetInCU: 0x17D49, offset: 0x17D49, size: 0x8, addend: 0x0, symName: __ZNKSt3__16vectorINS0_I10PerceptronNS_9allocatorIS1_EEEENS2_IS4_EEE4dataB7v160006Ev, symObjAddr: 0x57F8, symBinAddr: 0x100007098, symSize: 0x28 }
  - { offsetInCU: 0x17D6E, offset: 0x17D6E, size: 0x8, addend: 0x0, symName: __ZNSt3__16vectorINS0_I10PerceptronNS_9allocatorIS1_EEEENS2_IS4_EEE22__base_destruct_at_endB7v160006EPS4_, symObjAddr: 0x5834, symBinAddr: 0x1000070D4, symSize: 0x8C }
  - { offsetInCU: 0x17DB1, offset: 0x17DB1, size: 0x8, addend: 0x0, symName: __ZNSt3__116allocator_traitsINS_9allocatorINS_6vectorI10PerceptronNS1_IS3_EEEEEEE7destroyB7v160006IS5_vEEvRS6_PT_, symObjAddr: 0x58C0, symBinAddr: 0x100007160, symSize: 0x2C }
  - { offsetInCU: 0x17DEE, offset: 0x17DEE, size: 0x8, addend: 0x0, symName: __ZNSt3__19allocatorINS_6vectorI10PerceptronNS0_IS2_EEEEE7destroyB7v160006EPS4_, symObjAddr: 0x58EC, symBinAddr: 0x10000718C, symSize: 0x28 }
  - { offsetInCU: 0x17E21, offset: 0x17E21, size: 0x8, addend: 0x0, symName: __ZNSt3__19allocatorINS_6vectorI10PerceptronNS0_IS2_EEEEE10deallocateB7v160006EPS4_m, symObjAddr: 0x5914, symBinAddr: 0x1000071B4, symSize: 0x44 }
  - { offsetInCU: 0x17E62, offset: 0x17E62, size: 0x8, addend: 0x0, symName: __ZNSt3__117__compressed_pairIPNS_6vectorI10PerceptronNS_9allocatorIS2_EEEENS3_IS5_EEE6secondB7v160006Ev, symObjAddr: 0x5958, symBinAddr: 0x1000071F8, symSize: 0x24 }
  - { offsetInCU: 0x17E87, offset: 0x17E87, size: 0x8, addend: 0x0, symName: __ZNSt3__122__compressed_pair_elemINS_9allocatorINS_6vectorI10PerceptronNS1_IS3_EEEEEELi1ELb1EE5__getB7v160006Ev, symObjAddr: 0x597C, symBinAddr: 0x10000721C, symSize: 0x14 }
  - { offsetInCU: 0x17EAC, offset: 0x17EAC, size: 0x8, addend: 0x0, symName: __ZNKSt3__16vectorINS0_I10PerceptronNS_9allocatorIS1_EEEENS2_IS4_EEE9__end_capB7v160006Ev, symObjAddr: 0x5990, symBinAddr: 0x100007230, symSize: 0x28 }
  - { offsetInCU: 0x17ED1, offset: 0x17ED1, size: 0x8, addend: 0x0, symName: __ZNKSt3__117__compressed_pairIPNS_6vectorI10PerceptronNS_9allocatorIS2_EEEENS3_IS5_EEE5firstB7v160006Ev, symObjAddr: 0x59B8, symBinAddr: 0x100007258, symSize: 0x24 }
  - { offsetInCU: 0x17EF6, offset: 0x17EF6, size: 0x8, addend: 0x0, symName: __ZNKSt3__122__compressed_pair_elemIPNS_6vectorI10PerceptronNS_9allocatorIS2_EEEELi0ELb0EE5__getB7v160006Ev, symObjAddr: 0x59DC, symBinAddr: 0x10000727C, symSize: 0x14 }
  - { offsetInCU: 0x17F1B, offset: 0x17F1B, size: 0x8, addend: 0x0, symName: __ZNSt3__16vectorINS0_IdNS_9allocatorIdEEEENS1_IS3_EEED2B7v160006Ev, symObjAddr: 0x59F0, symBinAddr: 0x100007290, symSize: 0x44 }
  - { offsetInCU: 0x17F44, offset: 0x17F44, size: 0x8, addend: 0x0, symName: __ZNSt3__16vectorINS0_IdNS_9allocatorIdEEEENS1_IS3_EEE16__destroy_vectorC1ERS5_, symObjAddr: 0x5A34, symBinAddr: 0x1000072D4, symSize: 0x34 }
  - { offsetInCU: 0x17F7C, offset: 0x17F7C, size: 0x8, addend: 0x0, symName: __ZNSt3__16vectorINS0_IdNS_9allocatorIdEEEENS1_IS3_EEE16__destroy_vectorclB7v160006Ev, symObjAddr: 0x5A68, symBinAddr: 0x100007308, symSize: 0x9C }
  - { offsetInCU: 0x17FA1, offset: 0x17FA1, size: 0x8, addend: 0x0, symName: __ZNSt3__16vectorINS0_IdNS_9allocatorIdEEEENS1_IS3_EEE16__destroy_vectorC2ERS5_, symObjAddr: 0x5B04, symBinAddr: 0x1000073A4, symSize: 0x20 }
  - { offsetInCU: 0x17FD9, offset: 0x17FD9, size: 0x8, addend: 0x0, symName: __ZNKSt3__16vectorINS0_IdNS_9allocatorIdEEEENS1_IS3_EEE17__annotate_deleteB7v160006Ev, symObjAddr: 0x5B24, symBinAddr: 0x1000073C4, symSize: 0xD4 }
  - { offsetInCU: 0x17FFE, offset: 0x17FFE, size: 0x8, addend: 0x0, symName: __ZNSt3__16vectorINS0_IdNS_9allocatorIdEEEENS1_IS3_EEE7__clearB7v160006Ev, symObjAddr: 0x5C08, symBinAddr: 0x1000074A8, symSize: 0x28 }
  - { offsetInCU: 0x18023, offset: 0x18023, size: 0x8, addend: 0x0, symName: __ZNSt3__116allocator_traitsINS_9allocatorINS_6vectorIdNS1_IdEEEEEEE10deallocateB7v160006ERS5_PS4_m, symObjAddr: 0x5C30, symBinAddr: 0x1000074D0, symSize: 0x34 }
  - { offsetInCU: 0x18065, offset: 0x18065, size: 0x8, addend: 0x0, symName: __ZNSt3__16vectorINS0_IdNS_9allocatorIdEEEENS1_IS3_EEE7__allocB7v160006Ev, symObjAddr: 0x5C64, symBinAddr: 0x100007504, symSize: 0x28 }
  - { offsetInCU: 0x1808A, offset: 0x1808A, size: 0x8, addend: 0x0, symName: __ZNKSt3__16vectorINS0_IdNS_9allocatorIdEEEENS1_IS3_EEE8capacityB7v160006Ev, symObjAddr: 0x5C8C, symBinAddr: 0x10000752C, symSize: 0x40 }
  - { offsetInCU: 0x180AF, offset: 0x180AF, size: 0x8, addend: 0x0, symName: __ZNKSt3__16vectorINS0_IdNS_9allocatorIdEEEENS1_IS3_EEE31__annotate_contiguous_containerB7v160006EPKvS7_S7_S7_, symObjAddr: 0x5CCC, symBinAddr: 0x10000756C, symSize: 0x20 }
  - { offsetInCU: 0x18100, offset: 0x18100, size: 0x8, addend: 0x0, symName: __ZNKSt3__16vectorINS0_IdNS_9allocatorIdEEEENS1_IS3_EEE4dataB7v160006Ev, symObjAddr: 0x5CEC, symBinAddr: 0x10000758C, symSize: 0x28 }
  - { offsetInCU: 0x18125, offset: 0x18125, size: 0x8, addend: 0x0, symName: __ZNSt3__16vectorINS0_IdNS_9allocatorIdEEEENS1_IS3_EEE22__base_destruct_at_endB7v160006EPS3_, symObjAddr: 0x5D28, symBinAddr: 0x1000075C8, symSize: 0x8C }
  - { offsetInCU: 0x18168, offset: 0x18168, size: 0x8, addend: 0x0, symName: __ZNSt3__116allocator_traitsINS_9allocatorINS_6vectorIdNS1_IdEEEEEEE7destroyB7v160006IS4_vEEvRS5_PT_, symObjAddr: 0x5DB4, symBinAddr: 0x100007654, symSize: 0x2C }
  - { offsetInCU: 0x181A5, offset: 0x181A5, size: 0x8, addend: 0x0, symName: __ZNSt3__19allocatorINS_6vectorIdNS0_IdEEEEE7destroyB7v160006EPS3_, symObjAddr: 0x5DE0, symBinAddr: 0x100007680, symSize: 0x28 }
  - { offsetInCU: 0x181D8, offset: 0x181D8, size: 0x8, addend: 0x0, symName: __ZNSt3__19allocatorINS_6vectorIdNS0_IdEEEEE10deallocateB7v160006EPS3_m, symObjAddr: 0x5E08, symBinAddr: 0x1000076A8, symSize: 0x44 }
  - { offsetInCU: 0x18219, offset: 0x18219, size: 0x8, addend: 0x0, symName: __ZNSt3__117__compressed_pairIPNS_6vectorIdNS_9allocatorIdEEEENS2_IS4_EEE6secondB7v160006Ev, symObjAddr: 0x5E4C, symBinAddr: 0x1000076EC, symSize: 0x24 }
  - { offsetInCU: 0x1823E, offset: 0x1823E, size: 0x8, addend: 0x0, symName: __ZNSt3__122__compressed_pair_elemINS_9allocatorINS_6vectorIdNS1_IdEEEEEELi1ELb1EE5__getB7v160006Ev, symObjAddr: 0x5E70, symBinAddr: 0x100007710, symSize: 0x14 }
  - { offsetInCU: 0x18263, offset: 0x18263, size: 0x8, addend: 0x0, symName: __ZNKSt3__16vectorINS0_IdNS_9allocatorIdEEEENS1_IS3_EEE9__end_capB7v160006Ev, symObjAddr: 0x5E84, symBinAddr: 0x100007724, symSize: 0x28 }
  - { offsetInCU: 0x18288, offset: 0x18288, size: 0x8, addend: 0x0, symName: __ZNKSt3__117__compressed_pairIPNS_6vectorIdNS_9allocatorIdEEEENS2_IS4_EEE5firstB7v160006Ev, symObjAddr: 0x5EAC, symBinAddr: 0x10000774C, symSize: 0x24 }
  - { offsetInCU: 0x182AD, offset: 0x182AD, size: 0x8, addend: 0x0, symName: __ZNKSt3__122__compressed_pair_elemIPNS_6vectorIdNS_9allocatorIdEEEELi0ELb0EE5__getB7v160006Ev, symObjAddr: 0x5ED0, symBinAddr: 0x100007770, symSize: 0x14 }
  - { offsetInCU: 0x182D2, offset: 0x182D2, size: 0x8, addend: 0x0, symName: __ZNSt3__16vectorImNS_9allocatorImEEE19__copy_assign_allocB7v160006ERKS3_, symObjAddr: 0x5EE4, symBinAddr: 0x100007784, symSize: 0x2C }
  - { offsetInCU: 0x18306, offset: 0x18306, size: 0x8, addend: 0x0, symName: __ZNSt3__16vectorImNS_9allocatorImEEE6assignIPmLi0EEEvT_S6_, symObjAddr: 0x5F10, symBinAddr: 0x1000077B0, symSize: 0x17C }
  - { offsetInCU: 0x183A3, offset: 0x183A3, size: 0x8, addend: 0x0, symName: __ZNSt3__16vectorImNS_9allocatorImEEE19__copy_assign_allocB7v160006ERKS3_NS_17integral_constantIbLb0EEE, symObjAddr: 0x608C, symBinAddr: 0x10000792C, symSize: 0x14 }
  - { offsetInCU: 0x183DE, offset: 0x183DE, size: 0x8, addend: 0x0, symName: __ZNSt3__16vectorImNS_9allocatorImEEE18__construct_at_endIPmLi0EEEvT_S6_m, symObjAddr: 0x615C, symBinAddr: 0x1000079FC, symSize: 0x8C }
  - { offsetInCU: 0x1844F, offset: 0x1844F, size: 0x8, addend: 0x0, symName: __ZNSt3__16vectorImNS_9allocatorImEEE17__destruct_at_endB7v160006EPm, symObjAddr: 0x61E8, symBinAddr: 0x100007A88, symSize: 0x60 }
  - { offsetInCU: 0x18492, offset: 0x18492, size: 0x8, addend: 0x0, symName: __ZNSt3__16vectorImNS_9allocatorImEEE13__vdeallocateEv, symObjAddr: 0x6248, symBinAddr: 0x100007AE8, symSize: 0x8C }
  - { offsetInCU: 0x184B8, offset: 0x184B8, size: 0x8, addend: 0x0, symName: __ZNSt3__16vectorImNS_9allocatorImEEE11__vallocateB7v160006Em, symObjAddr: 0x62D4, symBinAddr: 0x100007B74, symSize: 0xAC }
  - { offsetInCU: 0x184FB, offset: 0x184FB, size: 0x8, addend: 0x0, symName: __ZNKSt3__16vectorImNS_9allocatorImEEE11__recommendB7v160006Em, symObjAddr: 0x6380, symBinAddr: 0x100007C20, symSize: 0xB4 }
  - { offsetInCU: 0x18567, offset: 0x18567, size: 0x8, addend: 0x0, symName: __ZNKSt3__114__copy_trivialclB7v160006ImmLi0EEENS_4pairIPT_PT0_EES4_S4_S6_, symObjAddr: 0x6630, symBinAddr: 0x100007ED0, symSize: 0x48 }
  - { offsetInCU: 0x185D3, offset: 0x185D3, size: 0x8, addend: 0x0, symName: __ZNSt3__14pairIPmS1_EC1B7v160006IRS1_S1_LPv0EEEOT_OT0_, symObjAddr: 0x67F8, symBinAddr: 0x100008098, symSize: 0x3C }
  - { offsetInCU: 0x18630, offset: 0x18630, size: 0x8, addend: 0x0, symName: __ZNSt3__14pairIPmS1_EC2B7v160006IRS1_S1_LPv0EEEOT_OT0_, symObjAddr: 0x6834, symBinAddr: 0x1000080D4, symSize: 0x34 }
  - { offsetInCU: 0x1868D, offset: 0x1868D, size: 0x8, addend: 0x0, symName: __ZNSt3__118__unwrap_iter_implIPmLb1EE8__unwrapB7v160006ES1_, symObjAddr: 0x6868, symBinAddr: 0x100008108, symSize: 0x24 }
  - { offsetInCU: 0x186B0, offset: 0x186B0, size: 0x8, addend: 0x0, symName: __ZNSt3__14pairIPmS1_EC1B7v160006IS1_S1_LPv0EEEOT_OT0_, symObjAddr: 0x688C, symBinAddr: 0x10000812C, symSize: 0x3C }
  - { offsetInCU: 0x1870D, offset: 0x1870D, size: 0x8, addend: 0x0, symName: __ZNSt3__14pairIPmS1_EC2B7v160006IS1_S1_LPv0EEEOT_OT0_, symObjAddr: 0x68C8, symBinAddr: 0x100008168, symSize: 0x34 }
  - { offsetInCU: 0x1876A, offset: 0x1876A, size: 0x8, addend: 0x0, symName: __ZNSt3__118__unwrap_iter_implIPmLb1EE8__rewrapB7v160006ES1_S1_, symObjAddr: 0x68FC, symBinAddr: 0x10000819C, symSize: 0x50 }
  - { offsetInCU: 0x187B4, offset: 0x187B4, size: 0x8, addend: 0x0, symName: __ZNSt3__16vectorImNS_9allocatorImEEE21_ConstructTransactionC1B7v160006ERS3_m, symObjAddr: 0x694C, symBinAddr: 0x1000081EC, symSize: 0x3C }
  - { offsetInCU: 0x187FB, offset: 0x187FB, size: 0x8, addend: 0x0, symName: __ZNSt3__16vectorImNS_9allocatorImEEE21_ConstructTransactionD1B7v160006Ev, symObjAddr: 0x6A7C, symBinAddr: 0x10000831C, symSize: 0x2C }
  - { offsetInCU: 0x18824, offset: 0x18824, size: 0x8, addend: 0x0, symName: __ZNSt3__16vectorImNS_9allocatorImEEE21_ConstructTransactionC2B7v160006ERS3_m, symObjAddr: 0x6AA8, symBinAddr: 0x100008348, symSize: 0x44 }
  - { offsetInCU: 0x1886B, offset: 0x1886B, size: 0x8, addend: 0x0, symName: __ZNSt3__129_AllocatorDestroyRangeReverseINS_9allocatorImEEPmEC1B7v160006ERS2_RS3_S6_, symObjAddr: 0x6B38, symBinAddr: 0x1000083D8, symSize: 0x44 }
  - { offsetInCU: 0x188C1, offset: 0x188C1, size: 0x8, addend: 0x0, symName: __ZNSt3__116allocator_traitsINS_9allocatorImEEE9constructB7v160006ImJRmEvEEvRS2_PT_DpOT0_, symObjAddr: 0x6B7C, symBinAddr: 0x10000841C, symSize: 0x34 }
  - { offsetInCU: 0x18918, offset: 0x18918, size: 0x8, addend: 0x0, symName: __ZNSt3__128__exception_guard_exceptionsINS_29_AllocatorDestroyRangeReverseINS_9allocatorImEEPmEEE10__completeB7v160006Ev, symObjAddr: 0x6BB0, symBinAddr: 0x100008450, symSize: 0x1C }
  - { offsetInCU: 0x1893D, offset: 0x1893D, size: 0x8, addend: 0x0, symName: __ZNSt3__128__exception_guard_exceptionsINS_29_AllocatorDestroyRangeReverseINS_9allocatorImEEPmEEED1B7v160006Ev, symObjAddr: 0x6BCC, symBinAddr: 0x10000846C, symSize: 0x2C }
  - { offsetInCU: 0x18966, offset: 0x18966, size: 0x8, addend: 0x0, symName: __ZNSt3__128__exception_guard_exceptionsINS_29_AllocatorDestroyRangeReverseINS_9allocatorImEEPmEEEC1B7v160006ES5_, symObjAddr: 0x6BF8, symBinAddr: 0x100008498, symSize: 0x34 }
  - { offsetInCU: 0x1899E, offset: 0x1899E, size: 0x8, addend: 0x0, symName: __ZNSt3__128__exception_guard_exceptionsINS_29_AllocatorDestroyRangeReverseINS_9allocatorImEEPmEEEC2B7v160006ES5_, symObjAddr: 0x6C2C, symBinAddr: 0x1000084CC, symSize: 0x30 }
  - { offsetInCU: 0x189D6, offset: 0x189D6, size: 0x8, addend: 0x0, symName: __ZNSt3__129_AllocatorDestroyRangeReverseINS_9allocatorImEEPmEC2B7v160006ERS2_RS3_S6_, symObjAddr: 0x6C5C, symBinAddr: 0x1000084FC, symSize: 0x38 }
  - { offsetInCU: 0x18A2C, offset: 0x18A2C, size: 0x8, addend: 0x0, symName: __ZNSt3__19allocatorImE9constructB7v160006ImJRmEEEvPT_DpOT0_, symObjAddr: 0x6C94, symBinAddr: 0x100008534, symSize: 0x28 }
  - { offsetInCU: 0x18A81, offset: 0x18A81, size: 0x8, addend: 0x0, symName: __ZNSt3__128__exception_guard_exceptionsINS_29_AllocatorDestroyRangeReverseINS_9allocatorImEEPmEEED2B7v160006Ev, symObjAddr: 0x6CBC, symBinAddr: 0x10000855C, symSize: 0x50 }
  - { offsetInCU: 0x18AAA, offset: 0x18AAA, size: 0x8, addend: 0x0, symName: __ZNKSt3__129_AllocatorDestroyRangeReverseINS_9allocatorImEEPmEclB7v160006Ev, symObjAddr: 0x6D0C, symBinAddr: 0x1000085AC, symSize: 0x68 }
  - { offsetInCU: 0x18ACF, offset: 0x18ACF, size: 0x8, addend: 0x0, symName: __ZNSt3__116reverse_iteratorIPmEC1B7v160006ES1_, symObjAddr: 0x6DE4, symBinAddr: 0x100008684, symSize: 0x34 }
  - { offsetInCU: 0x18B06, offset: 0x18B06, size: 0x8, addend: 0x0, symName: __ZNSt3__116reverse_iteratorIPmEppB7v160006Ev, symObjAddr: 0x6E84, symBinAddr: 0x100008724, symSize: 0x20 }
  - { offsetInCU: 0x18B2B, offset: 0x18B2B, size: 0x8, addend: 0x0, symName: __ZNKSt3__116reverse_iteratorIPmE4baseB7v160006Ev, symObjAddr: 0x6EA4, symBinAddr: 0x100008744, symSize: 0x18 }
  - { offsetInCU: 0x18B55, offset: 0x18B55, size: 0x8, addend: 0x0, symName: __ZNSt3__119__to_address_helperINS_16reverse_iteratorIPmEEvE6__callB7v160006ERKS3_, symObjAddr: 0x6EBC, symBinAddr: 0x10000875C, symSize: 0x38 }
  - { offsetInCU: 0x18B78, offset: 0x18B78, size: 0x8, addend: 0x0, symName: __ZNKSt3__116reverse_iteratorIPmEptB7v160006Ev, symObjAddr: 0x6EF4, symBinAddr: 0x100008794, symSize: 0x24 }
  - { offsetInCU: 0x18B9D, offset: 0x18B9D, size: 0x8, addend: 0x0, symName: __ZNKSt3__116reverse_iteratorIPmEdeB7v160006Ev, symObjAddr: 0x6F18, symBinAddr: 0x1000087B8, symSize: 0x28 }
  - { offsetInCU: 0x18BD0, offset: 0x18BD0, size: 0x8, addend: 0x0, symName: __ZNSt3__116reverse_iteratorIPmEC2B7v160006ES1_, symObjAddr: 0x6F40, symBinAddr: 0x1000087E0, symSize: 0x28 }
  - { offsetInCU: 0x18C07, offset: 0x18C07, size: 0x8, addend: 0x0, symName: __ZNSt3__16vectorImNS_9allocatorImEEE21_ConstructTransactionD2B7v160006Ev, symObjAddr: 0x6F68, symBinAddr: 0x100008808, symSize: 0x20 }
  - { offsetInCU: 0x18C30, offset: 0x18C30, size: 0x8, addend: 0x0, symName: __ZNSt3__16vectorImNS_9allocatorImEEE27__invalidate_iterators_pastB7v160006EPm, symObjAddr: 0x6F88, symBinAddr: 0x100008828, symSize: 0x14 }
  - { offsetInCU: 0x18C66, offset: 0x18C66, size: 0x8, addend: 0x0, symName: __ZNKSt3__16vectorImNS_9allocatorImEEE17__annotate_shrinkB7v160006Em, symObjAddr: 0x6F9C, symBinAddr: 0x10000883C, symSize: 0xB4 }
  - { offsetInCU: 0x18C9A, offset: 0x18C9A, size: 0x8, addend: 0x0, symName: __ZNSt3__16vectorImNS_9allocatorImEEE5clearB7v160006Ev, symObjAddr: 0x7050, symBinAddr: 0x1000088F0, symSize: 0x54 }
  - { offsetInCU: 0x18CCE, offset: 0x18CCE, size: 0x8, addend: 0x0, symName: __ZNSt3__16vectorImNS_9allocatorImEEE9__end_capB7v160006Ev, symObjAddr: 0x70A4, symBinAddr: 0x100008944, symSize: 0x28 }
  - { offsetInCU: 0x18CF3, offset: 0x18CF3, size: 0x8, addend: 0x0, symName: __ZNSt3__117__compressed_pairIPmNS_9allocatorImEEE5firstB7v160006Ev, symObjAddr: 0x70CC, symBinAddr: 0x10000896C, symSize: 0x24 }
  - { offsetInCU: 0x18D18, offset: 0x18D18, size: 0x8, addend: 0x0, symName: __ZNSt3__122__compressed_pair_elemIPmLi0ELb0EE5__getB7v160006Ev, symObjAddr: 0x70F0, symBinAddr: 0x100008990, symSize: 0x14 }
  - { offsetInCU: 0x18D3D, offset: 0x18D3D, size: 0x8, addend: 0x0, symName: __ZNKSt3__16vectorImNS_9allocatorImEEE8max_sizeEv, symObjAddr: 0x7104, symBinAddr: 0x1000089A4, symSize: 0x60 }
  - { offsetInCU: 0x18D63, offset: 0x18D63, size: 0x8, addend: 0x0, symName: __ZNKSt3__16vectorImNS_9allocatorImEEE20__throw_length_errorB7v160006Ev, symObjAddr: 0x7164, symBinAddr: 0x100008A04, symSize: 0x1C }
  - { offsetInCU: 0x18D88, offset: 0x18D88, size: 0x8, addend: 0x0, symName: __ZNKSt3__16vectorImNS_9allocatorImEEE14__annotate_newB7v160006Em, symObjAddr: 0x71C0, symBinAddr: 0x100008A60, symSize: 0xAC }
  - { offsetInCU: 0x18DC6, offset: 0x18DC6, size: 0x8, addend: 0x0, symName: __ZNSt3__116allocator_traitsINS_9allocatorImEEE8max_sizeB7v160006IS2_vEEmRKS2_, symObjAddr: 0x726C, symBinAddr: 0x100008B0C, symSize: 0x24 }
  - { offsetInCU: 0x18DF4, offset: 0x18DF4, size: 0x8, addend: 0x0, symName: __ZNKSt3__16vectorImNS_9allocatorImEEE7__allocB7v160006Ev, symObjAddr: 0x7290, symBinAddr: 0x100008B30, symSize: 0x28 }
  - { offsetInCU: 0x18E19, offset: 0x18E19, size: 0x8, addend: 0x0, symName: __ZNKSt3__19allocatorImE8max_sizeB7v160006Ev, symObjAddr: 0x72B8, symBinAddr: 0x100008B58, symSize: 0x14 }
  - { offsetInCU: 0x18E3E, offset: 0x18E3E, size: 0x8, addend: 0x0, symName: __ZNKSt3__117__compressed_pairIPmNS_9allocatorImEEE6secondB7v160006Ev, symObjAddr: 0x72CC, symBinAddr: 0x100008B6C, symSize: 0x24 }
  - { offsetInCU: 0x18E63, offset: 0x18E63, size: 0x8, addend: 0x0, symName: __ZNKSt3__122__compressed_pair_elemINS_9allocatorImEELi1ELb1EE5__getB7v160006Ev, symObjAddr: 0x72F0, symBinAddr: 0x100008B90, symSize: 0x14 }
  - { offsetInCU: 0x18E88, offset: 0x18E88, size: 0x8, addend: 0x0, symName: __ZNSt3__19allocatorImE8allocateB7v160006Em, symObjAddr: 0x7304, symBinAddr: 0x100008BA4, symSize: 0x58 }
  - { offsetInCU: 0x18EBB, offset: 0x18EBB, size: 0x8, addend: 0x0, symName: __ZNSt3__16vectorIdNS_9allocatorIdEEEC2EmRKd, symObjAddr: 0x735C, symBinAddr: 0x100008BFC, symSize: 0xE4 }
  - { offsetInCU: 0x18F19, offset: 0x18F19, size: 0x8, addend: 0x0, symName: __ZNSt3__16vectorIdNS_9allocatorIdEEE18__construct_at_endEmRKd, symObjAddr: 0x7480, symBinAddr: 0x100008D20, symSize: 0xD0 }
  - { offsetInCU: 0x18F98, offset: 0x18F98, size: 0x8, addend: 0x0, symName: __ZNSt3__128__exception_guard_exceptionsINS_6vectorIdNS_9allocatorIdEEE16__destroy_vectorEE10__completeB7v160006Ev, symObjAddr: 0x7550, symBinAddr: 0x100008DF0, symSize: 0x1C }
  - { offsetInCU: 0x18FBD, offset: 0x18FBD, size: 0x8, addend: 0x0, symName: __ZNSt3__128__exception_guard_exceptionsINS_6vectorIdNS_9allocatorIdEEE16__destroy_vectorEED1B7v160006Ev, symObjAddr: 0x756C, symBinAddr: 0x100008E0C, symSize: 0x2C }
  - { offsetInCU: 0x18FE6, offset: 0x18FE6, size: 0x8, addend: 0x0, symName: __ZNSt3__128__exception_guard_exceptionsINS_6vectorIdNS_9allocatorIdEEE16__destroy_vectorEEC1B7v160006ES5_, symObjAddr: 0x7598, symBinAddr: 0x100008E38, symSize: 0x34 }
  - { offsetInCU: 0x1901D, offset: 0x1901D, size: 0x8, addend: 0x0, symName: __ZNSt3__128__exception_guard_exceptionsINS_6vectorIdNS_9allocatorIdEEE16__destroy_vectorEEC2B7v160006ES5_, symObjAddr: 0x75CC, symBinAddr: 0x100008E6C, symSize: 0x24 }
  - { offsetInCU: 0x19054, offset: 0x19054, size: 0x8, addend: 0x0, symName: __ZNSt3__128__exception_guard_exceptionsINS_6vectorIdNS_9allocatorIdEEE16__destroy_vectorEED2B7v160006Ev, symObjAddr: 0x75F0, symBinAddr: 0x100008E90, symSize: 0x50 }
  - { offsetInCU: 0x1907D, offset: 0x1907D, size: 0x8, addend: 0x0, symName: __ZNSt3__16vectorINS0_IdNS_9allocatorIdEEEENS1_IS3_EEE9__end_capB7v160006Ev, symObjAddr: 0x7640, symBinAddr: 0x100008EE0, symSize: 0x28 }
  - { offsetInCU: 0x190A2, offset: 0x190A2, size: 0x8, addend: 0x0, symName: __ZNSt3__16vectorINS0_IdNS_9allocatorIdEEEENS1_IS3_EEE22__construct_one_at_endB7v160006IJS3_EEEvDpOT_, symObjAddr: 0x7668, symBinAddr: 0x100008F08, symSize: 0x90 }
  - { offsetInCU: 0x190F0, offset: 0x190F0, size: 0x8, addend: 0x0, symName: __ZNSt3__16vectorINS0_IdNS_9allocatorIdEEEENS1_IS3_EEE21__push_back_slow_pathIS3_EEvOT_, symObjAddr: 0x76F8, symBinAddr: 0x100008F98, symSize: 0xD8 }
  - { offsetInCU: 0x1914C, offset: 0x1914C, size: 0x8, addend: 0x0, symName: __ZNSt3__117__compressed_pairIPNS_6vectorIdNS_9allocatorIdEEEENS2_IS4_EEE5firstB7v160006Ev, symObjAddr: 0x77D0, symBinAddr: 0x100009070, symSize: 0x24 }
  - { offsetInCU: 0x19171, offset: 0x19171, size: 0x8, addend: 0x0, symName: __ZNSt3__122__compressed_pair_elemIPNS_6vectorIdNS_9allocatorIdEEEELi0ELb0EE5__getB7v160006Ev, symObjAddr: 0x77F4, symBinAddr: 0x100009094, symSize: 0x14 }
  - { offsetInCU: 0x191AF, offset: 0x191AF, size: 0x8, addend: 0x0, symName: __ZNSt3__16vectorINS0_IdNS_9allocatorIdEEEENS1_IS3_EEE21_ConstructTransactionC1B7v160006ERS5_m, symObjAddr: 0x7808, symBinAddr: 0x1000090A8, symSize: 0x3C }
  - { offsetInCU: 0x191F6, offset: 0x191F6, size: 0x8, addend: 0x0, symName: __ZNSt3__116allocator_traitsINS_9allocatorINS_6vectorIdNS1_IdEEEEEEE9constructB7v160006IS4_JS4_EvEEvRS5_PT_DpOT0_, symObjAddr: 0x7844, symBinAddr: 0x1000090E4, symSize: 0x34 }
  - { offsetInCU: 0x1924D, offset: 0x1924D, size: 0x8, addend: 0x0, symName: __ZNSt3__16vectorINS0_IdNS_9allocatorIdEEEENS1_IS3_EEE21_ConstructTransactionD1B7v160006Ev, symObjAddr: 0x7878, symBinAddr: 0x100009118, symSize: 0x2C }
  - { offsetInCU: 0x19276, offset: 0x19276, size: 0x8, addend: 0x0, symName: __ZNSt3__16vectorINS0_IdNS_9allocatorIdEEEENS1_IS3_EEE21_ConstructTransactionC2B7v160006ERS5_m, symObjAddr: 0x78A4, symBinAddr: 0x100009144, symSize: 0x4C }
  - { offsetInCU: 0x192BD, offset: 0x192BD, size: 0x8, addend: 0x0, symName: __ZNSt3__19allocatorINS_6vectorIdNS0_IdEEEEE9constructB7v160006IS3_JS3_EEEvPT_DpOT0_, symObjAddr: 0x78F0, symBinAddr: 0x100009190, symSize: 0x30 }
  - { offsetInCU: 0x19312, offset: 0x19312, size: 0x8, addend: 0x0, symName: __ZNSt3__16vectorIdNS_9allocatorIdEEEC1B7v160006EOS3_, symObjAddr: 0x7920, symBinAddr: 0x1000091C0, symSize: 0x34 }
  - { offsetInCU: 0x1934C, offset: 0x1934C, size: 0x8, addend: 0x0, symName: __ZNSt3__16vectorIdNS_9allocatorIdEEEC2B7v160006EOS3_, symObjAddr: 0x7954, symBinAddr: 0x1000091F4, symSize: 0xDC }
  - { offsetInCU: 0x1938B, offset: 0x1938B, size: 0x8, addend: 0x0, symName: __ZNSt3__117__compressed_pairIPdNS_9allocatorIdEEEC1B7v160006IDnS3_EEOT_OT0_, symObjAddr: 0x7A30, symBinAddr: 0x1000092D0, symSize: 0x3C }
  - { offsetInCU: 0x193E2, offset: 0x193E2, size: 0x8, addend: 0x0, symName: __ZNSt3__117__compressed_pairIPdNS_9allocatorIdEEEC2B7v160006IDnS3_EEOT_OT0_, symObjAddr: 0x7A80, symBinAddr: 0x100009320, symSize: 0x44 }
  - { offsetInCU: 0x19439, offset: 0x19439, size: 0x8, addend: 0x0, symName: __ZNSt3__122__compressed_pair_elemINS_9allocatorIdEELi1ELb1EEC2B7v160006IS2_vEEOT_, symObjAddr: 0x7AC4, symBinAddr: 0x100009364, symSize: 0x18 }
  - { offsetInCU: 0x1947A, offset: 0x1947A, size: 0x8, addend: 0x0, symName: __ZNSt3__16vectorINS0_IdNS_9allocatorIdEEEENS1_IS3_EEE21_ConstructTransactionD2B7v160006Ev, symObjAddr: 0x7ADC, symBinAddr: 0x10000937C, symSize: 0x20 }
  - { offsetInCU: 0x194A3, offset: 0x194A3, size: 0x8, addend: 0x0, symName: __ZNKSt3__16vectorINS0_IdNS_9allocatorIdEEEENS1_IS3_EEE11__recommendB7v160006Em, symObjAddr: 0x7AFC, symBinAddr: 0x10000939C, symSize: 0xB4 }
  - { offsetInCU: 0x194F6, offset: 0x194F6, size: 0x8, addend: 0x0, symName: __ZNSt3__114__split_bufferINS_6vectorIdNS_9allocatorIdEEEERNS2_IS4_EEEC1EmmS6_, symObjAddr: 0x7BB0, symBinAddr: 0x100009450, symSize: 0x44 }
  - { offsetInCU: 0x1954B, offset: 0x1954B, size: 0x8, addend: 0x0, symName: __ZNSt3__114__split_bufferINS_6vectorIdNS_9allocatorIdEEEERNS2_IS4_EEED1Ev, symObjAddr: 0x7D0C, symBinAddr: 0x1000095AC, symSize: 0x2C }
  - { offsetInCU: 0x19576, offset: 0x19576, size: 0x8, addend: 0x0, symName: __ZNKSt3__16vectorINS0_IdNS_9allocatorIdEEEENS1_IS3_EEE8max_sizeEv, symObjAddr: 0x7D38, symBinAddr: 0x1000095D8, symSize: 0x60 }
  - { offsetInCU: 0x1959C, offset: 0x1959C, size: 0x8, addend: 0x0, symName: __ZNKSt3__16vectorINS0_IdNS_9allocatorIdEEEENS1_IS3_EEE20__throw_length_errorB7v160006Ev, symObjAddr: 0x7D98, symBinAddr: 0x100009638, symSize: 0x1C }
  - { offsetInCU: 0x195CB, offset: 0x195CB, size: 0x8, addend: 0x0, symName: __ZNSt3__116allocator_traitsINS_9allocatorINS_6vectorIdNS1_IdEEEEEEE8max_sizeB7v160006IS5_vEEmRKS5_, symObjAddr: 0x7DB4, symBinAddr: 0x100009654, symSize: 0x24 }
  - { offsetInCU: 0x195F9, offset: 0x195F9, size: 0x8, addend: 0x0, symName: __ZNKSt3__16vectorINS0_IdNS_9allocatorIdEEEENS1_IS3_EEE7__allocB7v160006Ev, symObjAddr: 0x7DD8, symBinAddr: 0x100009678, symSize: 0x28 }
  - { offsetInCU: 0x1961E, offset: 0x1961E, size: 0x8, addend: 0x0, symName: __ZNKSt3__19allocatorINS_6vectorIdNS0_IdEEEEE8max_sizeB7v160006Ev, symObjAddr: 0x7E00, symBinAddr: 0x1000096A0, symSize: 0x18 }
  - { offsetInCU: 0x19643, offset: 0x19643, size: 0x8, addend: 0x0, symName: __ZNKSt3__117__compressed_pairIPNS_6vectorIdNS_9allocatorIdEEEENS2_IS4_EEE6secondB7v160006Ev, symObjAddr: 0x7E18, symBinAddr: 0x1000096B8, symSize: 0x24 }
  - { offsetInCU: 0x19668, offset: 0x19668, size: 0x8, addend: 0x0, symName: __ZNKSt3__122__compressed_pair_elemINS_9allocatorINS_6vectorIdNS1_IdEEEEEELi1ELb1EE5__getB7v160006Ev, symObjAddr: 0x7E3C, symBinAddr: 0x1000096DC, symSize: 0x14 }
  - { offsetInCU: 0x1968D, offset: 0x1968D, size: 0x8, addend: 0x0, symName: __ZNSt3__114__split_bufferINS_6vectorIdNS_9allocatorIdEEEERNS2_IS4_EEEC2EmmS6_, symObjAddr: 0x7E50, symBinAddr: 0x1000096F0, symSize: 0xE0 }
  - { offsetInCU: 0x196FF, offset: 0x196FF, size: 0x8, addend: 0x0, symName: __ZNSt3__117__compressed_pairIPNS_6vectorIdNS_9allocatorIdEEEERNS2_IS4_EEEC1B7v160006IDnS7_EEOT_OT0_, symObjAddr: 0x7F30, symBinAddr: 0x1000097D0, symSize: 0x3C }
  - { offsetInCU: 0x19756, offset: 0x19756, size: 0x8, addend: 0x0, symName: __ZNSt3__114__split_bufferINS_6vectorIdNS_9allocatorIdEEEERNS2_IS4_EEE7__allocB7v160006Ev, symObjAddr: 0x7FAC, symBinAddr: 0x10000984C, symSize: 0x28 }
  - { offsetInCU: 0x1977B, offset: 0x1977B, size: 0x8, addend: 0x0, symName: __ZNSt3__114__split_bufferINS_6vectorIdNS_9allocatorIdEEEERNS2_IS4_EEE9__end_capB7v160006Ev, symObjAddr: 0x7FD4, symBinAddr: 0x100009874, symSize: 0x28 }
  - { offsetInCU: 0x197A0, offset: 0x197A0, size: 0x8, addend: 0x0, symName: __ZNSt3__117__compressed_pairIPNS_6vectorIdNS_9allocatorIdEEEERNS2_IS4_EEEC2B7v160006IDnS7_EEOT_OT0_, symObjAddr: 0x7FFC, symBinAddr: 0x10000989C, symSize: 0x48 }
  - { offsetInCU: 0x197F7, offset: 0x197F7, size: 0x8, addend: 0x0, symName: __ZNSt3__122__compressed_pair_elemIRNS_9allocatorINS_6vectorIdNS1_IdEEEEEELi1ELb0EEC2B7v160006IS6_vEEOT_, symObjAddr: 0x8044, symBinAddr: 0x1000098E4, symSize: 0x20 }
  - { offsetInCU: 0x19838, offset: 0x19838, size: 0x8, addend: 0x0, symName: __ZNSt3__19allocatorINS_6vectorIdNS0_IdEEEEE8allocateB7v160006Em, symObjAddr: 0x8064, symBinAddr: 0x100009904, symSize: 0x5C }
  - { offsetInCU: 0x1986B, offset: 0x1986B, size: 0x8, addend: 0x0, symName: __ZNSt3__117__compressed_pairIPNS_6vectorIdNS_9allocatorIdEEEERNS2_IS4_EEE6secondB7v160006Ev, symObjAddr: 0x80C0, symBinAddr: 0x100009960, symSize: 0x28 }
  - { offsetInCU: 0x19890, offset: 0x19890, size: 0x8, addend: 0x0, symName: __ZNSt3__122__compressed_pair_elemIRNS_9allocatorINS_6vectorIdNS1_IdEEEEEELi1ELb0EE5__getB7v160006Ev, symObjAddr: 0x80E8, symBinAddr: 0x100009988, symSize: 0x18 }
  - { offsetInCU: 0x198B5, offset: 0x198B5, size: 0x8, addend: 0x0, symName: __ZNSt3__117__compressed_pairIPNS_6vectorIdNS_9allocatorIdEEEERNS2_IS4_EEE5firstB7v160006Ev, symObjAddr: 0x8100, symBinAddr: 0x1000099A0, symSize: 0x24 }
  - { offsetInCU: 0x198DA, offset: 0x198DA, size: 0x8, addend: 0x0, symName: __ZNSt3__116reverse_iteratorIPNS_6vectorIdNS_9allocatorIdEEEEEC1B7v160006ES5_, symObjAddr: 0x8250, symBinAddr: 0x100009AF0, symSize: 0x34 }
  - { offsetInCU: 0x19911, offset: 0x19911, size: 0x8, addend: 0x0, symName: __ZNKSt3__116reverse_iteratorIPNS_6vectorIdNS_9allocatorIdEEEEE4baseB7v160006Ev, symObjAddr: 0x8284, symBinAddr: 0x100009B24, symSize: 0x18 }
  - { offsetInCU: 0x19936, offset: 0x19936, size: 0x8, addend: 0x0, symName: __ZNKSt3__16vectorINS0_IdNS_9allocatorIdEEEENS1_IS3_EEE14__annotate_newB7v160006Em, symObjAddr: 0x82D8, symBinAddr: 0x100009B78, symSize: 0xC8 }
  - { offsetInCU: 0x1996A, offset: 0x1996A, size: 0x8, addend: 0x0, symName: __ZNSt3__129_AllocatorDestroyRangeReverseINS_9allocatorINS_6vectorIdNS1_IdEEEEEENS_16reverse_iteratorIPS4_EEEC1B7v160006ERS5_RS8_SB_, symObjAddr: 0x83FC, symBinAddr: 0x100009C9C, symSize: 0x44 }
  - { offsetInCU: 0x199C0, offset: 0x199C0, size: 0x8, addend: 0x0, symName: __ZNKSt3__116reverse_iteratorIPNS_6vectorIdNS_9allocatorIdEEEEEdeB7v160006Ev, symObjAddr: 0x84AC, symBinAddr: 0x100009D4C, symSize: 0x28 }
  - { offsetInCU: 0x199F3, offset: 0x199F3, size: 0x8, addend: 0x0, symName: __ZNSt3__116reverse_iteratorIPNS_6vectorIdNS_9allocatorIdEEEEEppB7v160006Ev, symObjAddr: 0x84D4, symBinAddr: 0x100009D74, symSize: 0x20 }
  - { offsetInCU: 0x19A18, offset: 0x19A18, size: 0x8, addend: 0x0, symName: __ZNSt3__128__exception_guard_exceptionsINS_29_AllocatorDestroyRangeReverseINS_9allocatorINS_6vectorIdNS2_IdEEEEEENS_16reverse_iteratorIPS5_EEEEE10__completeB7v160006Ev, symObjAddr: 0x84F4, symBinAddr: 0x100009D94, symSize: 0x1C }
  - { offsetInCU: 0x19A3D, offset: 0x19A3D, size: 0x8, addend: 0x0, symName: __ZNSt3__128__exception_guard_exceptionsINS_29_AllocatorDestroyRangeReverseINS_9allocatorINS_6vectorIdNS2_IdEEEEEENS_16reverse_iteratorIPS5_EEEEED1B7v160006Ev, symObjAddr: 0x8510, symBinAddr: 0x100009DB0, symSize: 0x2C }
  - { offsetInCU: 0x19A66, offset: 0x19A66, size: 0x8, addend: 0x0, symName: __ZNSt3__128__exception_guard_exceptionsINS_29_AllocatorDestroyRangeReverseINS_9allocatorINS_6vectorIdNS2_IdEEEEEENS_16reverse_iteratorIPS5_EEEEEC1B7v160006ESA_, symObjAddr: 0x853C, symBinAddr: 0x100009DDC, symSize: 0x34 }
  - { offsetInCU: 0x19A9E, offset: 0x19A9E, size: 0x8, addend: 0x0, symName: __ZNSt3__128__exception_guard_exceptionsINS_29_AllocatorDestroyRangeReverseINS_9allocatorINS_6vectorIdNS2_IdEEEEEENS_16reverse_iteratorIPS5_EEEEEC2B7v160006ESA_, symObjAddr: 0x8570, symBinAddr: 0x100009E10, symSize: 0x30 }
  - { offsetInCU: 0x19AD6, offset: 0x19AD6, size: 0x8, addend: 0x0, symName: __ZNSt3__129_AllocatorDestroyRangeReverseINS_9allocatorINS_6vectorIdNS1_IdEEEEEENS_16reverse_iteratorIPS4_EEEC2B7v160006ERS5_RS8_SB_, symObjAddr: 0x85A0, symBinAddr: 0x100009E40, symSize: 0x38 }
  - { offsetInCU: 0x19B31, offset: 0x19B31, size: 0x8, addend: 0x0, symName: __ZNSt3__119__to_address_helperINS_16reverse_iteratorIPNS_6vectorIdNS_9allocatorIdEEEEEEvE6__callB7v160006ERKS7_, symObjAddr: 0x85D8, symBinAddr: 0x100009E78, symSize: 0x38 }
  - { offsetInCU: 0x19B54, offset: 0x19B54, size: 0x8, addend: 0x0, symName: __ZNKSt3__116reverse_iteratorIPNS_6vectorIdNS_9allocatorIdEEEEEptB7v160006Ev, symObjAddr: 0x8610, symBinAddr: 0x100009EB0, symSize: 0x24 }
  - { offsetInCU: 0x19B79, offset: 0x19B79, size: 0x8, addend: 0x0, symName: __ZNSt3__128__exception_guard_exceptionsINS_29_AllocatorDestroyRangeReverseINS_9allocatorINS_6vectorIdNS2_IdEEEEEENS_16reverse_iteratorIPS5_EEEEED2B7v160006Ev, symObjAddr: 0x8634, symBinAddr: 0x100009ED4, symSize: 0x50 }
  - { offsetInCU: 0x19BA2, offset: 0x19BA2, size: 0x8, addend: 0x0, symName: __ZNKSt3__129_AllocatorDestroyRangeReverseINS_9allocatorINS_6vectorIdNS1_IdEEEEEENS_16reverse_iteratorIPS4_EEEclB7v160006Ev, symObjAddr: 0x8684, symBinAddr: 0x100009F24, symSize: 0xB4 }
  - { offsetInCU: 0x19BC8, offset: 0x19BC8, size: 0x8, addend: 0x0, symName: __ZNSt3__116reverse_iteratorINS0_IPNS_6vectorIdNS_9allocatorIdEEEEEEEC1B7v160006ES6_, symObjAddr: 0x87A8, symBinAddr: 0x10000A048, symSize: 0x3C }
  - { offsetInCU: 0x19BFF, offset: 0x19BFF, size: 0x8, addend: 0x0, symName: __ZNSt3__116reverse_iteratorINS0_IPNS_6vectorIdNS_9allocatorIdEEEEEEEppB7v160006Ev, symObjAddr: 0x8868, symBinAddr: 0x10000A108, symSize: 0x30 }
  - { offsetInCU: 0x19C24, offset: 0x19C24, size: 0x8, addend: 0x0, symName: __ZNKSt3__116reverse_iteratorINS0_IPNS_6vectorIdNS_9allocatorIdEEEEEEE4baseB7v160006Ev, symObjAddr: 0x8898, symBinAddr: 0x10000A138, symSize: 0x24 }
  - { offsetInCU: 0x19C4E, offset: 0x19C4E, size: 0x8, addend: 0x0, symName: __ZNSt3__119__to_address_helperINS_16reverse_iteratorINS1_IPNS_6vectorIdNS_9allocatorIdEEEEEEEEvE6__callB7v160006ERKS8_, symObjAddr: 0x88BC, symBinAddr: 0x10000A15C, symSize: 0x38 }
  - { offsetInCU: 0x19C71, offset: 0x19C71, size: 0x8, addend: 0x0, symName: __ZNKSt3__116reverse_iteratorINS0_IPNS_6vectorIdNS_9allocatorIdEEEEEEEptB7v160006Ev, symObjAddr: 0x88F4, symBinAddr: 0x10000A194, symSize: 0x24 }
  - { offsetInCU: 0x19C96, offset: 0x19C96, size: 0x8, addend: 0x0, symName: __ZNKSt3__116reverse_iteratorINS0_IPNS_6vectorIdNS_9allocatorIdEEEEEEEdeB7v160006Ev, symObjAddr: 0x8918, symBinAddr: 0x10000A1B8, symSize: 0x34 }
  - { offsetInCU: 0x19CC9, offset: 0x19CC9, size: 0x8, addend: 0x0, symName: __ZNSt3__116reverse_iteratorIPNS_6vectorIdNS_9allocatorIdEEEEEmmB7v160006Ev, symObjAddr: 0x894C, symBinAddr: 0x10000A1EC, symSize: 0x20 }
  - { offsetInCU: 0x19CEE, offset: 0x19CEE, size: 0x8, addend: 0x0, symName: __ZNSt3__116reverse_iteratorINS0_IPNS_6vectorIdNS_9allocatorIdEEEEEEEC2B7v160006ES6_, symObjAddr: 0x896C, symBinAddr: 0x10000A20C, symSize: 0x2C }
  - { offsetInCU: 0x19D25, offset: 0x19D25, size: 0x8, addend: 0x0, symName: __ZNSt3__116reverse_iteratorIPNS_6vectorIdNS_9allocatorIdEEEEEC2B7v160006ES5_, symObjAddr: 0x8998, symBinAddr: 0x10000A238, symSize: 0x28 }
  - { offsetInCU: 0x19D5C, offset: 0x19D5C, size: 0x8, addend: 0x0, symName: __ZNSt3__114__split_bufferINS_6vectorIdNS_9allocatorIdEEEERNS2_IS4_EEED2Ev, symObjAddr: 0x89C0, symBinAddr: 0x10000A260, symSize: 0x8C }
  - { offsetInCU: 0x19D87, offset: 0x19D87, size: 0x8, addend: 0x0, symName: __ZNSt3__114__split_bufferINS_6vectorIdNS_9allocatorIdEEEERNS2_IS4_EEE5clearB7v160006Ev, symObjAddr: 0x8A4C, symBinAddr: 0x10000A2EC, symSize: 0x28 }
  - { offsetInCU: 0x19DAC, offset: 0x19DAC, size: 0x8, addend: 0x0, symName: __ZNKSt3__114__split_bufferINS_6vectorIdNS_9allocatorIdEEEERNS2_IS4_EEE8capacityB7v160006Ev, symObjAddr: 0x8A74, symBinAddr: 0x10000A314, symSize: 0x40 }
  - { offsetInCU: 0x19DD1, offset: 0x19DD1, size: 0x8, addend: 0x0, symName: __ZNSt3__114__split_bufferINS_6vectorIdNS_9allocatorIdEEEERNS2_IS4_EEE17__destruct_at_endB7v160006EPS4_, symObjAddr: 0x8AB4, symBinAddr: 0x10000A354, symSize: 0x2C }
  - { offsetInCU: 0x19E04, offset: 0x19E04, size: 0x8, addend: 0x0, symName: __ZNSt3__114__split_bufferINS_6vectorIdNS_9allocatorIdEEEERNS2_IS4_EEE17__destruct_at_endB7v160006EPS4_NS_17integral_constantIbLb0EEE, symObjAddr: 0x8AE0, symBinAddr: 0x10000A380, symSize: 0x80 }
  - { offsetInCU: 0x19E42, offset: 0x19E42, size: 0x8, addend: 0x0, symName: __ZNKSt3__114__split_bufferINS_6vectorIdNS_9allocatorIdEEEERNS2_IS4_EEE9__end_capB7v160006Ev, symObjAddr: 0x8B60, symBinAddr: 0x10000A400, symSize: 0x28 }
  - { offsetInCU: 0x19E67, offset: 0x19E67, size: 0x8, addend: 0x0, symName: __ZNKSt3__117__compressed_pairIPNS_6vectorIdNS_9allocatorIdEEEERNS2_IS4_EEE5firstB7v160006Ev, symObjAddr: 0x8B88, symBinAddr: 0x10000A428, symSize: 0x24 }
  - { offsetInCU: 0x19E8C, offset: 0x19E8C, size: 0x8, addend: 0x0, symName: __ZNSt3__16vectorI10PerceptronNS_9allocatorIS1_EEEC2B7v160006Ev, symObjAddr: 0x8BAC, symBinAddr: 0x10000A44C, symSize: 0x58 }
  - { offsetInCU: 0x19EB5, offset: 0x19EB5, size: 0x8, addend: 0x0, symName: __ZNSt3__117__compressed_pairIP10PerceptronNS_9allocatorIS1_EEEC1B7v160006IDnNS_18__default_init_tagEEEOT_OT0_, symObjAddr: 0x8C04, symBinAddr: 0x10000A4A4, symSize: 0x3C }
  - { offsetInCU: 0x19F0C, offset: 0x19F0C, size: 0x8, addend: 0x0, symName: __ZNSt3__117__compressed_pairIP10PerceptronNS_9allocatorIS1_EEEC2B7v160006IDnNS_18__default_init_tagEEEOT_OT0_, symObjAddr: 0x8C50, symBinAddr: 0x10000A4F0, symSize: 0x40 }
  - { offsetInCU: 0x19F63, offset: 0x19F63, size: 0x8, addend: 0x0, symName: __ZNSt3__122__compressed_pair_elemIP10PerceptronLi0ELb0EEC2B7v160006IDnvEEOT_, symObjAddr: 0x8C90, symBinAddr: 0x10000A530, symSize: 0x1C }
  - { offsetInCU: 0x19FA4, offset: 0x19FA4, size: 0x8, addend: 0x0, symName: __ZNSt3__122__compressed_pair_elemINS_9allocatorI10PerceptronEELi1ELb1EEC2B7v160006ENS_18__default_init_tagE, symObjAddr: 0x8CAC, symBinAddr: 0x10000A54C, symSize: 0x2C }
  - { offsetInCU: 0x19FD7, offset: 0x19FD7, size: 0x8, addend: 0x0, symName: __ZNSt3__19allocatorI10PerceptronEC2B7v160006Ev, symObjAddr: 0x8CD8, symBinAddr: 0x10000A578, symSize: 0x2C }
  - { offsetInCU: 0x1A000, offset: 0x1A000, size: 0x8, addend: 0x0, symName: __ZNSt3__116__non_trivial_ifILb1ENS_9allocatorI10PerceptronEEEC2B7v160006Ev, symObjAddr: 0x8D04, symBinAddr: 0x10000A5A4, symSize: 0x14 }
  - { offsetInCU: 0x1A029, offset: 0x1A029, size: 0x8, addend: 0x0, symName: __ZNSt3__16vectorI10PerceptronNS_9allocatorIS1_EEED2B7v160006Ev, symObjAddr: 0x8D18, symBinAddr: 0x10000A5B8, symSize: 0x44 }
  - { offsetInCU: 0x1A052, offset: 0x1A052, size: 0x8, addend: 0x0, symName: __ZNSt3__16vectorI10PerceptronNS_9allocatorIS1_EEE16__destroy_vectorC1ERS4_, symObjAddr: 0x8D5C, symBinAddr: 0x10000A5FC, symSize: 0x34 }
  - { offsetInCU: 0x1A08A, offset: 0x1A08A, size: 0x8, addend: 0x0, symName: __ZNSt3__16vectorI10PerceptronNS_9allocatorIS1_EEE16__destroy_vectorclB7v160006Ev, symObjAddr: 0x8D90, symBinAddr: 0x10000A630, symSize: 0x9C }
  - { offsetInCU: 0x1A0AF, offset: 0x1A0AF, size: 0x8, addend: 0x0, symName: __ZNSt3__16vectorI10PerceptronNS_9allocatorIS1_EEE16__destroy_vectorC2ERS4_, symObjAddr: 0x8E2C, symBinAddr: 0x10000A6CC, symSize: 0x20 }
  - { offsetInCU: 0x1A0E7, offset: 0x1A0E7, size: 0x8, addend: 0x0, symName: __ZNKSt3__16vectorI10PerceptronNS_9allocatorIS1_EEE17__annotate_deleteB7v160006Ev, symObjAddr: 0x8E4C, symBinAddr: 0x10000A6EC, symSize: 0xB8 }
  - { offsetInCU: 0x1A10C, offset: 0x1A10C, size: 0x8, addend: 0x0, symName: __ZNSt3__16vectorI10PerceptronNS_9allocatorIS1_EEE7__clearB7v160006Ev, symObjAddr: 0x8F14, symBinAddr: 0x10000A7B4, symSize: 0x28 }
  - { offsetInCU: 0x1A131, offset: 0x1A131, size: 0x8, addend: 0x0, symName: __ZNSt3__116allocator_traitsINS_9allocatorI10PerceptronEEE10deallocateB7v160006ERS3_PS2_m, symObjAddr: 0x8F3C, symBinAddr: 0x10000A7DC, symSize: 0x34 }
  - { offsetInCU: 0x1A173, offset: 0x1A173, size: 0x8, addend: 0x0, symName: __ZNSt3__16vectorI10PerceptronNS_9allocatorIS1_EEE7__allocB7v160006Ev, symObjAddr: 0x8F70, symBinAddr: 0x10000A810, symSize: 0x28 }
  - { offsetInCU: 0x1A198, offset: 0x1A198, size: 0x8, addend: 0x0, symName: __ZNKSt3__16vectorI10PerceptronNS_9allocatorIS1_EEE8capacityB7v160006Ev, symObjAddr: 0x8F98, symBinAddr: 0x10000A838, symSize: 0x40 }
  - { offsetInCU: 0x1A1BD, offset: 0x1A1BD, size: 0x8, addend: 0x0, symName: __ZNKSt3__16vectorI10PerceptronNS_9allocatorIS1_EEE31__annotate_contiguous_containerB7v160006EPKvS6_S6_S6_, symObjAddr: 0x8FD8, symBinAddr: 0x10000A878, symSize: 0x20 }
  - { offsetInCU: 0x1A20E, offset: 0x1A20E, size: 0x8, addend: 0x0, symName: __ZNKSt3__16vectorI10PerceptronNS_9allocatorIS1_EEE4dataB7v160006Ev, symObjAddr: 0x8FF8, symBinAddr: 0x10000A898, symSize: 0x28 }
  - { offsetInCU: 0x1A233, offset: 0x1A233, size: 0x8, addend: 0x0, symName: __ZNSt3__16vectorI10PerceptronNS_9allocatorIS1_EEE22__base_destruct_at_endB7v160006EPS1_, symObjAddr: 0x9034, symBinAddr: 0x10000A8D4, symSize: 0x8C }
  - { offsetInCU: 0x1A276, offset: 0x1A276, size: 0x8, addend: 0x0, symName: __ZNSt3__116allocator_traitsINS_9allocatorI10PerceptronEEE7destroyB7v160006IS2_vEEvRS3_PT_, symObjAddr: 0x90C0, symBinAddr: 0x10000A960, symSize: 0x2C }
  - { offsetInCU: 0x1A2B3, offset: 0x1A2B3, size: 0x8, addend: 0x0, symName: __ZNSt3__19allocatorI10PerceptronE7destroyB7v160006EPS1_, symObjAddr: 0x90EC, symBinAddr: 0x10000A98C, symSize: 0x28 }
  - { offsetInCU: 0x1A2E6, offset: 0x1A2E6, size: 0x8, addend: 0x0, symName: __ZNSt3__19allocatorI10PerceptronE10deallocateB7v160006EPS1_m, symObjAddr: 0x9114, symBinAddr: 0x10000A9B4, symSize: 0x40 }
  - { offsetInCU: 0x1A327, offset: 0x1A327, size: 0x8, addend: 0x0, symName: __ZNSt3__117__compressed_pairIP10PerceptronNS_9allocatorIS1_EEE6secondB7v160006Ev, symObjAddr: 0x9154, symBinAddr: 0x10000A9F4, symSize: 0x24 }
  - { offsetInCU: 0x1A34C, offset: 0x1A34C, size: 0x8, addend: 0x0, symName: __ZNSt3__122__compressed_pair_elemINS_9allocatorI10PerceptronEELi1ELb1EE5__getB7v160006Ev, symObjAddr: 0x9178, symBinAddr: 0x10000AA18, symSize: 0x14 }
  - { offsetInCU: 0x1A371, offset: 0x1A371, size: 0x8, addend: 0x0, symName: __ZNKSt3__16vectorI10PerceptronNS_9allocatorIS1_EEE9__end_capB7v160006Ev, symObjAddr: 0x918C, symBinAddr: 0x10000AA2C, symSize: 0x28 }
  - { offsetInCU: 0x1A396, offset: 0x1A396, size: 0x8, addend: 0x0, symName: __ZNKSt3__117__compressed_pairIP10PerceptronNS_9allocatorIS1_EEE5firstB7v160006Ev, symObjAddr: 0x91B4, symBinAddr: 0x10000AA54, symSize: 0x24 }
  - { offsetInCU: 0x1A3BB, offset: 0x1A3BB, size: 0x8, addend: 0x0, symName: __ZNKSt3__122__compressed_pair_elemIP10PerceptronLi0ELb0EE5__getB7v160006Ev, symObjAddr: 0x91D8, symBinAddr: 0x10000AA78, symSize: 0x14 }
  - { offsetInCU: 0x1A3E0, offset: 0x1A3E0, size: 0x8, addend: 0x0, symName: __ZNSt3__16vectorINS0_I10PerceptronNS_9allocatorIS1_EEEENS2_IS4_EEE9__end_capB7v160006Ev, symObjAddr: 0x91EC, symBinAddr: 0x10000AA8C, symSize: 0x28 }
  - { offsetInCU: 0x1A405, offset: 0x1A405, size: 0x8, addend: 0x0, symName: __ZNSt3__16vectorINS0_I10PerceptronNS_9allocatorIS1_EEEENS2_IS4_EEE22__construct_one_at_endB7v160006IJS4_EEEvDpOT_, symObjAddr: 0x9214, symBinAddr: 0x10000AAB4, symSize: 0x90 }
  - { offsetInCU: 0x1A453, offset: 0x1A453, size: 0x8, addend: 0x0, symName: __ZNSt3__16vectorINS0_I10PerceptronNS_9allocatorIS1_EEEENS2_IS4_EEE21__push_back_slow_pathIS4_EEvOT_, symObjAddr: 0x92A4, symBinAddr: 0x10000AB44, symSize: 0xD8 }
  - { offsetInCU: 0x1A4AF, offset: 0x1A4AF, size: 0x8, addend: 0x0, symName: __ZNSt3__117__compressed_pairIPNS_6vectorI10PerceptronNS_9allocatorIS2_EEEENS3_IS5_EEE5firstB7v160006Ev, symObjAddr: 0x937C, symBinAddr: 0x10000AC1C, symSize: 0x24 }
  - { offsetInCU: 0x1A4D4, offset: 0x1A4D4, size: 0x8, addend: 0x0, symName: __ZNSt3__122__compressed_pair_elemIPNS_6vectorI10PerceptronNS_9allocatorIS2_EEEELi0ELb0EE5__getB7v160006Ev, symObjAddr: 0x93A0, symBinAddr: 0x10000AC40, symSize: 0x14 }
  - { offsetInCU: 0x1A512, offset: 0x1A512, size: 0x8, addend: 0x0, symName: __ZNSt3__16vectorINS0_I10PerceptronNS_9allocatorIS1_EEEENS2_IS4_EEE21_ConstructTransactionC1B7v160006ERS6_m, symObjAddr: 0x93B4, symBinAddr: 0x10000AC54, symSize: 0x3C }
  - { offsetInCU: 0x1A559, offset: 0x1A559, size: 0x8, addend: 0x0, symName: __ZNSt3__116allocator_traitsINS_9allocatorINS_6vectorI10PerceptronNS1_IS3_EEEEEEE9constructB7v160006IS5_JS5_EvEEvRS6_PT_DpOT0_, symObjAddr: 0x93F0, symBinAddr: 0x10000AC90, symSize: 0x34 }
  - { offsetInCU: 0x1A5B0, offset: 0x1A5B0, size: 0x8, addend: 0x0, symName: __ZNSt3__16vectorINS0_I10PerceptronNS_9allocatorIS1_EEEENS2_IS4_EEE21_ConstructTransactionD1B7v160006Ev, symObjAddr: 0x9424, symBinAddr: 0x10000ACC4, symSize: 0x2C }
  - { offsetInCU: 0x1A5D9, offset: 0x1A5D9, size: 0x8, addend: 0x0, symName: __ZNSt3__16vectorINS0_I10PerceptronNS_9allocatorIS1_EEEENS2_IS4_EEE21_ConstructTransactionC2B7v160006ERS6_m, symObjAddr: 0x9450, symBinAddr: 0x10000ACF0, symSize: 0x4C }
  - { offsetInCU: 0x1A620, offset: 0x1A620, size: 0x8, addend: 0x0, symName: __ZNSt3__19allocatorINS_6vectorI10PerceptronNS0_IS2_EEEEE9constructB7v160006IS4_JS4_EEEvPT_DpOT0_, symObjAddr: 0x949C, symBinAddr: 0x10000AD3C, symSize: 0x30 }
  - { offsetInCU: 0x1A675, offset: 0x1A675, size: 0x8, addend: 0x0, symName: __ZNSt3__16vectorI10PerceptronNS_9allocatorIS1_EEEC1B7v160006EOS4_, symObjAddr: 0x94CC, symBinAddr: 0x10000AD6C, symSize: 0x34 }
  - { offsetInCU: 0x1A6AF, offset: 0x1A6AF, size: 0x8, addend: 0x0, symName: __ZNSt3__16vectorI10PerceptronNS_9allocatorIS1_EEEC2B7v160006EOS4_, symObjAddr: 0x9500, symBinAddr: 0x10000ADA0, symSize: 0xDC }
  - { offsetInCU: 0x1A6EE, offset: 0x1A6EE, size: 0x8, addend: 0x0, symName: __ZNSt3__117__compressed_pairIP10PerceptronNS_9allocatorIS1_EEEC1B7v160006IDnS4_EEOT_OT0_, symObjAddr: 0x95DC, symBinAddr: 0x10000AE7C, symSize: 0x3C }
  - { offsetInCU: 0x1A745, offset: 0x1A745, size: 0x8, addend: 0x0, symName: __ZNSt3__16vectorI10PerceptronNS_9allocatorIS1_EEE9__end_capB7v160006Ev, symObjAddr: 0x962C, symBinAddr: 0x10000AECC, symSize: 0x28 }
  - { offsetInCU: 0x1A76A, offset: 0x1A76A, size: 0x8, addend: 0x0, symName: __ZNSt3__117__compressed_pairIP10PerceptronNS_9allocatorIS1_EEEC2B7v160006IDnS4_EEOT_OT0_, symObjAddr: 0x9654, symBinAddr: 0x10000AEF4, symSize: 0x44 }
  - { offsetInCU: 0x1A7C1, offset: 0x1A7C1, size: 0x8, addend: 0x0, symName: __ZNSt3__122__compressed_pair_elemINS_9allocatorI10PerceptronEELi1ELb1EEC2B7v160006IS3_vEEOT_, symObjAddr: 0x9698, symBinAddr: 0x10000AF38, symSize: 0x18 }
  - { offsetInCU: 0x1A802, offset: 0x1A802, size: 0x8, addend: 0x0, symName: __ZNSt3__117__compressed_pairIP10PerceptronNS_9allocatorIS1_EEE5firstB7v160006Ev, symObjAddr: 0x96B0, symBinAddr: 0x10000AF50, symSize: 0x24 }
  - { offsetInCU: 0x1A827, offset: 0x1A827, size: 0x8, addend: 0x0, symName: __ZNSt3__122__compressed_pair_elemIP10PerceptronLi0ELb0EE5__getB7v160006Ev, symObjAddr: 0x96D4, symBinAddr: 0x10000AF74, symSize: 0x14 }
  - { offsetInCU: 0x1A84C, offset: 0x1A84C, size: 0x8, addend: 0x0, symName: __ZNSt3__16vectorINS0_I10PerceptronNS_9allocatorIS1_EEEENS2_IS4_EEE21_ConstructTransactionD2B7v160006Ev, symObjAddr: 0x96E8, symBinAddr: 0x10000AF88, symSize: 0x20 }
  - { offsetInCU: 0x1A875, offset: 0x1A875, size: 0x8, addend: 0x0, symName: __ZNKSt3__16vectorINS0_I10PerceptronNS_9allocatorIS1_EEEENS2_IS4_EEE11__recommendB7v160006Em, symObjAddr: 0x9708, symBinAddr: 0x10000AFA8, symSize: 0xB4 }
  - { offsetInCU: 0x1A8C8, offset: 0x1A8C8, size: 0x8, addend: 0x0, symName: __ZNSt3__114__split_bufferINS_6vectorI10PerceptronNS_9allocatorIS2_EEEERNS3_IS5_EEEC1EmmS7_, symObjAddr: 0x97BC, symBinAddr: 0x10000B05C, symSize: 0x44 }
  - { offsetInCU: 0x1A91D, offset: 0x1A91D, size: 0x8, addend: 0x0, symName: __ZNSt3__114__split_bufferINS_6vectorI10PerceptronNS_9allocatorIS2_EEEERNS3_IS5_EEED1Ev, symObjAddr: 0x9918, symBinAddr: 0x10000B1B8, symSize: 0x2C }
  - { offsetInCU: 0x1A948, offset: 0x1A948, size: 0x8, addend: 0x0, symName: __ZNKSt3__16vectorINS0_I10PerceptronNS_9allocatorIS1_EEEENS2_IS4_EEE8max_sizeEv, symObjAddr: 0x9944, symBinAddr: 0x10000B1E4, symSize: 0x60 }
  - { offsetInCU: 0x1A96E, offset: 0x1A96E, size: 0x8, addend: 0x0, symName: __ZNKSt3__16vectorINS0_I10PerceptronNS_9allocatorIS1_EEEENS2_IS4_EEE20__throw_length_errorB7v160006Ev, symObjAddr: 0x99A4, symBinAddr: 0x10000B244, symSize: 0x1C }
  - { offsetInCU: 0x1A99D, offset: 0x1A99D, size: 0x8, addend: 0x0, symName: __ZNSt3__116allocator_traitsINS_9allocatorINS_6vectorI10PerceptronNS1_IS3_EEEEEEE8max_sizeB7v160006IS6_vEEmRKS6_, symObjAddr: 0x99C0, symBinAddr: 0x10000B260, symSize: 0x24 }
  - { offsetInCU: 0x1A9CB, offset: 0x1A9CB, size: 0x8, addend: 0x0, symName: __ZNKSt3__16vectorINS0_I10PerceptronNS_9allocatorIS1_EEEENS2_IS4_EEE7__allocB7v160006Ev, symObjAddr: 0x99E4, symBinAddr: 0x10000B284, symSize: 0x28 }
  - { offsetInCU: 0x1A9F0, offset: 0x1A9F0, size: 0x8, addend: 0x0, symName: __ZNKSt3__19allocatorINS_6vectorI10PerceptronNS0_IS2_EEEEE8max_sizeB7v160006Ev, symObjAddr: 0x9A0C, symBinAddr: 0x10000B2AC, symSize: 0x18 }
  - { offsetInCU: 0x1AA15, offset: 0x1AA15, size: 0x8, addend: 0x0, symName: __ZNKSt3__117__compressed_pairIPNS_6vectorI10PerceptronNS_9allocatorIS2_EEEENS3_IS5_EEE6secondB7v160006Ev, symObjAddr: 0x9A24, symBinAddr: 0x10000B2C4, symSize: 0x24 }
  - { offsetInCU: 0x1AA3A, offset: 0x1AA3A, size: 0x8, addend: 0x0, symName: __ZNKSt3__122__compressed_pair_elemINS_9allocatorINS_6vectorI10PerceptronNS1_IS3_EEEEEELi1ELb1EE5__getB7v160006Ev, symObjAddr: 0x9A48, symBinAddr: 0x10000B2E8, symSize: 0x14 }
  - { offsetInCU: 0x1AA5F, offset: 0x1AA5F, size: 0x8, addend: 0x0, symName: __ZNSt3__114__split_bufferINS_6vectorI10PerceptronNS_9allocatorIS2_EEEERNS3_IS5_EEEC2EmmS7_, symObjAddr: 0x9A5C, symBinAddr: 0x10000B2FC, symSize: 0xE0 }
  - { offsetInCU: 0x1AAD1, offset: 0x1AAD1, size: 0x8, addend: 0x0, symName: __ZNSt3__117__compressed_pairIPNS_6vectorI10PerceptronNS_9allocatorIS2_EEEERNS3_IS5_EEEC1B7v160006IDnS8_EEOT_OT0_, symObjAddr: 0x9B3C, symBinAddr: 0x10000B3DC, symSize: 0x3C }
  - { offsetInCU: 0x1AB28, offset: 0x1AB28, size: 0x8, addend: 0x0, symName: __ZNSt3__114__split_bufferINS_6vectorI10PerceptronNS_9allocatorIS2_EEEERNS3_IS5_EEE7__allocB7v160006Ev, symObjAddr: 0x9BB8, symBinAddr: 0x10000B458, symSize: 0x28 }
  - { offsetInCU: 0x1AB4D, offset: 0x1AB4D, size: 0x8, addend: 0x0, symName: __ZNSt3__114__split_bufferINS_6vectorI10PerceptronNS_9allocatorIS2_EEEERNS3_IS5_EEE9__end_capB7v160006Ev, symObjAddr: 0x9BE0, symBinAddr: 0x10000B480, symSize: 0x28 }
  - { offsetInCU: 0x1AB72, offset: 0x1AB72, size: 0x8, addend: 0x0, symName: __ZNSt3__117__compressed_pairIPNS_6vectorI10PerceptronNS_9allocatorIS2_EEEERNS3_IS5_EEEC2B7v160006IDnS8_EEOT_OT0_, symObjAddr: 0x9C08, symBinAddr: 0x10000B4A8, symSize: 0x48 }
  - { offsetInCU: 0x1ABC9, offset: 0x1ABC9, size: 0x8, addend: 0x0, symName: __ZNSt3__122__compressed_pair_elemIRNS_9allocatorINS_6vectorI10PerceptronNS1_IS3_EEEEEELi1ELb0EEC2B7v160006IS7_vEEOT_, symObjAddr: 0x9C50, symBinAddr: 0x10000B4F0, symSize: 0x20 }
  - { offsetInCU: 0x1AC0A, offset: 0x1AC0A, size: 0x8, addend: 0x0, symName: __ZNSt3__19allocatorINS_6vectorI10PerceptronNS0_IS2_EEEEE8allocateB7v160006Em, symObjAddr: 0x9C70, symBinAddr: 0x10000B510, symSize: 0x5C }
  - { offsetInCU: 0x1AC3D, offset: 0x1AC3D, size: 0x8, addend: 0x0, symName: __ZNSt3__117__compressed_pairIPNS_6vectorI10PerceptronNS_9allocatorIS2_EEEERNS3_IS5_EEE6secondB7v160006Ev, symObjAddr: 0x9CCC, symBinAddr: 0x10000B56C, symSize: 0x28 }
  - { offsetInCU: 0x1AC62, offset: 0x1AC62, size: 0x8, addend: 0x0, symName: __ZNSt3__122__compressed_pair_elemIRNS_9allocatorINS_6vectorI10PerceptronNS1_IS3_EEEEEELi1ELb0EE5__getB7v160006Ev, symObjAddr: 0x9CF4, symBinAddr: 0x10000B594, symSize: 0x18 }
  - { offsetInCU: 0x1AC87, offset: 0x1AC87, size: 0x8, addend: 0x0, symName: __ZNSt3__117__compressed_pairIPNS_6vectorI10PerceptronNS_9allocatorIS2_EEEERNS3_IS5_EEE5firstB7v160006Ev, symObjAddr: 0x9D0C, symBinAddr: 0x10000B5AC, symSize: 0x24 }
  - { offsetInCU: 0x1ACAC, offset: 0x1ACAC, size: 0x8, addend: 0x0, symName: __ZNSt3__116reverse_iteratorIPNS_6vectorI10PerceptronNS_9allocatorIS2_EEEEEC1B7v160006ES6_, symObjAddr: 0x9E5C, symBinAddr: 0x10000B6FC, symSize: 0x34 }
  - { offsetInCU: 0x1ACE3, offset: 0x1ACE3, size: 0x8, addend: 0x0, symName: __ZNKSt3__116reverse_iteratorIPNS_6vectorI10PerceptronNS_9allocatorIS2_EEEEE4baseB7v160006Ev, symObjAddr: 0x9E90, symBinAddr: 0x10000B730, symSize: 0x18 }
  - { offsetInCU: 0x1AD08, offset: 0x1AD08, size: 0x8, addend: 0x0, symName: __ZNKSt3__16vectorINS0_I10PerceptronNS_9allocatorIS1_EEEENS2_IS4_EEE14__annotate_newB7v160006Em, symObjAddr: 0x9EE4, symBinAddr: 0x10000B784, symSize: 0xC8 }
  - { offsetInCU: 0x1AD3C, offset: 0x1AD3C, size: 0x8, addend: 0x0, symName: __ZNSt3__129_AllocatorDestroyRangeReverseINS_9allocatorINS_6vectorI10PerceptronNS1_IS3_EEEEEENS_16reverse_iteratorIPS5_EEEC1B7v160006ERS6_RS9_SC_, symObjAddr: 0xA008, symBinAddr: 0x10000B8A8, symSize: 0x44 }
  - { offsetInCU: 0x1AD92, offset: 0x1AD92, size: 0x8, addend: 0x0, symName: __ZNKSt3__116reverse_iteratorIPNS_6vectorI10PerceptronNS_9allocatorIS2_EEEEEdeB7v160006Ev, symObjAddr: 0xA0B8, symBinAddr: 0x10000B958, symSize: 0x28 }
  - { offsetInCU: 0x1ADC5, offset: 0x1ADC5, size: 0x8, addend: 0x0, symName: __ZNSt3__116reverse_iteratorIPNS_6vectorI10PerceptronNS_9allocatorIS2_EEEEEppB7v160006Ev, symObjAddr: 0xA0E0, symBinAddr: 0x10000B980, symSize: 0x20 }
  - { offsetInCU: 0x1ADEA, offset: 0x1ADEA, size: 0x8, addend: 0x0, symName: __ZNSt3__128__exception_guard_exceptionsINS_29_AllocatorDestroyRangeReverseINS_9allocatorINS_6vectorI10PerceptronNS2_IS4_EEEEEENS_16reverse_iteratorIPS6_EEEEE10__completeB7v160006Ev, symObjAddr: 0xA100, symBinAddr: 0x10000B9A0, symSize: 0x1C }
  - { offsetInCU: 0x1AE0F, offset: 0x1AE0F, size: 0x8, addend: 0x0, symName: __ZNSt3__128__exception_guard_exceptionsINS_29_AllocatorDestroyRangeReverseINS_9allocatorINS_6vectorI10PerceptronNS2_IS4_EEEEEENS_16reverse_iteratorIPS6_EEEEED1B7v160006Ev, symObjAddr: 0xA11C, symBinAddr: 0x10000B9BC, symSize: 0x2C }
  - { offsetInCU: 0x1AE38, offset: 0x1AE38, size: 0x8, addend: 0x0, symName: __ZNSt3__128__exception_guard_exceptionsINS_29_AllocatorDestroyRangeReverseINS_9allocatorINS_6vectorI10PerceptronNS2_IS4_EEEEEENS_16reverse_iteratorIPS6_EEEEEC1B7v160006ESB_, symObjAddr: 0xA148, symBinAddr: 0x10000B9E8, symSize: 0x34 }
  - { offsetInCU: 0x1AE70, offset: 0x1AE70, size: 0x8, addend: 0x0, symName: __ZNSt3__128__exception_guard_exceptionsINS_29_AllocatorDestroyRangeReverseINS_9allocatorINS_6vectorI10PerceptronNS2_IS4_EEEEEENS_16reverse_iteratorIPS6_EEEEEC2B7v160006ESB_, symObjAddr: 0xA17C, symBinAddr: 0x10000BA1C, symSize: 0x30 }
  - { offsetInCU: 0x1AEA8, offset: 0x1AEA8, size: 0x8, addend: 0x0, symName: __ZNSt3__129_AllocatorDestroyRangeReverseINS_9allocatorINS_6vectorI10PerceptronNS1_IS3_EEEEEENS_16reverse_iteratorIPS5_EEEC2B7v160006ERS6_RS9_SC_, symObjAddr: 0xA1AC, symBinAddr: 0x10000BA4C, symSize: 0x38 }
  - { offsetInCU: 0x1AF03, offset: 0x1AF03, size: 0x8, addend: 0x0, symName: __ZNSt3__119__to_address_helperINS_16reverse_iteratorIPNS_6vectorI10PerceptronNS_9allocatorIS3_EEEEEEvE6__callB7v160006ERKS8_, symObjAddr: 0xA1E4, symBinAddr: 0x10000BA84, symSize: 0x38 }
  - { offsetInCU: 0x1AF26, offset: 0x1AF26, size: 0x8, addend: 0x0, symName: __ZNKSt3__116reverse_iteratorIPNS_6vectorI10PerceptronNS_9allocatorIS2_EEEEEptB7v160006Ev, symObjAddr: 0xA21C, symBinAddr: 0x10000BABC, symSize: 0x24 }
  - { offsetInCU: 0x1AF4B, offset: 0x1AF4B, size: 0x8, addend: 0x0, symName: __ZNSt3__128__exception_guard_exceptionsINS_29_AllocatorDestroyRangeReverseINS_9allocatorINS_6vectorI10PerceptronNS2_IS4_EEEEEENS_16reverse_iteratorIPS6_EEEEED2B7v160006Ev, symObjAddr: 0xA240, symBinAddr: 0x10000BAE0, symSize: 0x50 }
  - { offsetInCU: 0x1AF74, offset: 0x1AF74, size: 0x8, addend: 0x0, symName: __ZNKSt3__129_AllocatorDestroyRangeReverseINS_9allocatorINS_6vectorI10PerceptronNS1_IS3_EEEEEENS_16reverse_iteratorIPS5_EEEclB7v160006Ev, symObjAddr: 0xA290, symBinAddr: 0x10000BB30, symSize: 0xB4 }
  - { offsetInCU: 0x1AF9A, offset: 0x1AF9A, size: 0x8, addend: 0x0, symName: __ZNSt3__116reverse_iteratorINS0_IPNS_6vectorI10PerceptronNS_9allocatorIS2_EEEEEEEC1B7v160006ES7_, symObjAddr: 0xA3B4, symBinAddr: 0x10000BC54, symSize: 0x3C }
  - { offsetInCU: 0x1AFD1, offset: 0x1AFD1, size: 0x8, addend: 0x0, symName: __ZNSt3__116reverse_iteratorINS0_IPNS_6vectorI10PerceptronNS_9allocatorIS2_EEEEEEEppB7v160006Ev, symObjAddr: 0xA474, symBinAddr: 0x10000BD14, symSize: 0x30 }
  - { offsetInCU: 0x1AFF6, offset: 0x1AFF6, size: 0x8, addend: 0x0, symName: __ZNKSt3__116reverse_iteratorINS0_IPNS_6vectorI10PerceptronNS_9allocatorIS2_EEEEEEE4baseB7v160006Ev, symObjAddr: 0xA4A4, symBinAddr: 0x10000BD44, symSize: 0x24 }
  - { offsetInCU: 0x1B020, offset: 0x1B020, size: 0x8, addend: 0x0, symName: __ZNSt3__119__to_address_helperINS_16reverse_iteratorINS1_IPNS_6vectorI10PerceptronNS_9allocatorIS3_EEEEEEEEvE6__callB7v160006ERKS9_, symObjAddr: 0xA4C8, symBinAddr: 0x10000BD68, symSize: 0x38 }
  - { offsetInCU: 0x1B043, offset: 0x1B043, size: 0x8, addend: 0x0, symName: __ZNKSt3__116reverse_iteratorINS0_IPNS_6vectorI10PerceptronNS_9allocatorIS2_EEEEEEEptB7v160006Ev, symObjAddr: 0xA500, symBinAddr: 0x10000BDA0, symSize: 0x24 }
  - { offsetInCU: 0x1B068, offset: 0x1B068, size: 0x8, addend: 0x0, symName: __ZNKSt3__116reverse_iteratorINS0_IPNS_6vectorI10PerceptronNS_9allocatorIS2_EEEEEEEdeB7v160006Ev, symObjAddr: 0xA524, symBinAddr: 0x10000BDC4, symSize: 0x34 }
  - { offsetInCU: 0x1B09B, offset: 0x1B09B, size: 0x8, addend: 0x0, symName: __ZNSt3__116reverse_iteratorIPNS_6vectorI10PerceptronNS_9allocatorIS2_EEEEEmmB7v160006Ev, symObjAddr: 0xA558, symBinAddr: 0x10000BDF8, symSize: 0x20 }
  - { offsetInCU: 0x1B0C0, offset: 0x1B0C0, size: 0x8, addend: 0x0, symName: __ZNSt3__116reverse_iteratorINS0_IPNS_6vectorI10PerceptronNS_9allocatorIS2_EEEEEEEC2B7v160006ES7_, symObjAddr: 0xA578, symBinAddr: 0x10000BE18, symSize: 0x2C }
  - { offsetInCU: 0x1B0F7, offset: 0x1B0F7, size: 0x8, addend: 0x0, symName: __ZNSt3__116reverse_iteratorIPNS_6vectorI10PerceptronNS_9allocatorIS2_EEEEEC2B7v160006ES6_, symObjAddr: 0xA5A4, symBinAddr: 0x10000BE44, symSize: 0x28 }
  - { offsetInCU: 0x1B12E, offset: 0x1B12E, size: 0x8, addend: 0x0, symName: __ZNSt3__114__split_bufferINS_6vectorI10PerceptronNS_9allocatorIS2_EEEERNS3_IS5_EEED2Ev, symObjAddr: 0xA5CC, symBinAddr: 0x10000BE6C, symSize: 0x8C }
  - { offsetInCU: 0x1B159, offset: 0x1B159, size: 0x8, addend: 0x0, symName: __ZNSt3__114__split_bufferINS_6vectorI10PerceptronNS_9allocatorIS2_EEEERNS3_IS5_EEE5clearB7v160006Ev, symObjAddr: 0xA658, symBinAddr: 0x10000BEF8, symSize: 0x28 }
  - { offsetInCU: 0x1B17E, offset: 0x1B17E, size: 0x8, addend: 0x0, symName: __ZNKSt3__114__split_bufferINS_6vectorI10PerceptronNS_9allocatorIS2_EEEERNS3_IS5_EEE8capacityB7v160006Ev, symObjAddr: 0xA680, symBinAddr: 0x10000BF20, symSize: 0x40 }
  - { offsetInCU: 0x1B1A3, offset: 0x1B1A3, size: 0x8, addend: 0x0, symName: __ZNSt3__114__split_bufferINS_6vectorI10PerceptronNS_9allocatorIS2_EEEERNS3_IS5_EEE17__destruct_at_endB7v160006EPS5_, symObjAddr: 0xA6C0, symBinAddr: 0x10000BF60, symSize: 0x2C }
  - { offsetInCU: 0x1B1D6, offset: 0x1B1D6, size: 0x8, addend: 0x0, symName: __ZNSt3__114__split_bufferINS_6vectorI10PerceptronNS_9allocatorIS2_EEEERNS3_IS5_EEE17__destruct_at_endB7v160006EPS5_NS_17integral_constantIbLb0EEE, symObjAddr: 0xA6EC, symBinAddr: 0x10000BF8C, symSize: 0x80 }
  - { offsetInCU: 0x1B214, offset: 0x1B214, size: 0x8, addend: 0x0, symName: __ZNKSt3__114__split_bufferINS_6vectorI10PerceptronNS_9allocatorIS2_EEEERNS3_IS5_EEE9__end_capB7v160006Ev, symObjAddr: 0xA76C, symBinAddr: 0x10000C00C, symSize: 0x28 }
  - { offsetInCU: 0x1B239, offset: 0x1B239, size: 0x8, addend: 0x0, symName: __ZNKSt3__117__compressed_pairIPNS_6vectorI10PerceptronNS_9allocatorIS2_EEEERNS3_IS5_EEE5firstB7v160006Ev, symObjAddr: 0xA794, symBinAddr: 0x10000C034, symSize: 0x24 }
  - { offsetInCU: 0x1B263, offset: 0x1B263, size: 0x8, addend: 0x0, symName: __ZNSt3__16vectorI10PerceptronNS_9allocatorIS1_EEE22__construct_one_at_endB7v160006IJS1_EEEvDpOT_, symObjAddr: 0xA7B8, symBinAddr: 0x10000C058, symSize: 0x90 }
  - { offsetInCU: 0x1B2B1, offset: 0x1B2B1, size: 0x8, addend: 0x0, symName: __ZNSt3__16vectorI10PerceptronNS_9allocatorIS1_EEE21__push_back_slow_pathIS1_EEvOT_, symObjAddr: 0xA848, symBinAddr: 0x10000C0E8, symSize: 0xD8 }
  - { offsetInCU: 0x1B326, offset: 0x1B326, size: 0x8, addend: 0x0, symName: __ZNSt3__16vectorI10PerceptronNS_9allocatorIS1_EEE21_ConstructTransactionC1B7v160006ERS4_m, symObjAddr: 0xA920, symBinAddr: 0x10000C1C0, symSize: 0x3C }
  - { offsetInCU: 0x1B36D, offset: 0x1B36D, size: 0x8, addend: 0x0, symName: __ZNSt3__116allocator_traitsINS_9allocatorI10PerceptronEEE9constructB7v160006IS2_JS2_EvEEvRS3_PT_DpOT0_, symObjAddr: 0xA95C, symBinAddr: 0x10000C1FC, symSize: 0x34 }
  - { offsetInCU: 0x1B3C4, offset: 0x1B3C4, size: 0x8, addend: 0x0, symName: __ZNSt3__16vectorI10PerceptronNS_9allocatorIS1_EEE21_ConstructTransactionD1B7v160006Ev, symObjAddr: 0xA990, symBinAddr: 0x10000C230, symSize: 0x2C }
  - { offsetInCU: 0x1B3ED, offset: 0x1B3ED, size: 0x8, addend: 0x0, symName: __ZNSt3__16vectorI10PerceptronNS_9allocatorIS1_EEE21_ConstructTransactionC2B7v160006ERS4_m, symObjAddr: 0xA9BC, symBinAddr: 0x10000C25C, symSize: 0x44 }
  - { offsetInCU: 0x1B434, offset: 0x1B434, size: 0x8, addend: 0x0, symName: __ZNSt3__19allocatorI10PerceptronE9constructB7v160006IS1_JS1_EEEvPT_DpOT0_, symObjAddr: 0xAA00, symBinAddr: 0x10000C2A0, symSize: 0x30 }
  - { offsetInCU: 0x1B489, offset: 0x1B489, size: 0x8, addend: 0x0, symName: __ZN10PerceptronC1EOS_, symObjAddr: 0xAA30, symBinAddr: 0x10000C2D0, symSize: 0x34 }
  - { offsetInCU: 0x1B4BD, offset: 0x1B4BD, size: 0x8, addend: 0x0, symName: __ZN10PerceptronC2EOS_, symObjAddr: 0xAA64, symBinAddr: 0x10000C304, symSize: 0x40 }
  - { offsetInCU: 0x1B4F1, offset: 0x1B4F1, size: 0x8, addend: 0x0, symName: __ZNSt3__16vectorI10PerceptronNS_9allocatorIS1_EEE21_ConstructTransactionD2B7v160006Ev, symObjAddr: 0xAAA4, symBinAddr: 0x10000C344, symSize: 0x20 }
  - { offsetInCU: 0x1B51A, offset: 0x1B51A, size: 0x8, addend: 0x0, symName: __ZNKSt3__16vectorI10PerceptronNS_9allocatorIS1_EEE11__recommendB7v160006Em, symObjAddr: 0xAAC4, symBinAddr: 0x10000C364, symSize: 0xB4 }
  - { offsetInCU: 0x1B56D, offset: 0x1B56D, size: 0x8, addend: 0x0, symName: __ZNSt3__114__split_bufferI10PerceptronRNS_9allocatorIS1_EEEC1EmmS4_, symObjAddr: 0xAB78, symBinAddr: 0x10000C418, symSize: 0x44 }
  - { offsetInCU: 0x1B5C2, offset: 0x1B5C2, size: 0x8, addend: 0x0, symName: __ZNSt3__114__split_bufferI10PerceptronRNS_9allocatorIS1_EEED1Ev, symObjAddr: 0xACD4, symBinAddr: 0x10000C574, symSize: 0x2C }
  - { offsetInCU: 0x1B5ED, offset: 0x1B5ED, size: 0x8, addend: 0x0, symName: __ZNKSt3__16vectorI10PerceptronNS_9allocatorIS1_EEE8max_sizeEv, symObjAddr: 0xAD00, symBinAddr: 0x10000C5A0, symSize: 0x60 }
  - { offsetInCU: 0x1B613, offset: 0x1B613, size: 0x8, addend: 0x0, symName: __ZNKSt3__16vectorI10PerceptronNS_9allocatorIS1_EEE20__throw_length_errorB7v160006Ev, symObjAddr: 0xAD60, symBinAddr: 0x10000C600, symSize: 0x1C }
  - { offsetInCU: 0x1B642, offset: 0x1B642, size: 0x8, addend: 0x0, symName: __ZNSt3__116allocator_traitsINS_9allocatorI10PerceptronEEE8max_sizeB7v160006IS3_vEEmRKS3_, symObjAddr: 0xAD7C, symBinAddr: 0x10000C61C, symSize: 0x24 }
  - { offsetInCU: 0x1B670, offset: 0x1B670, size: 0x8, addend: 0x0, symName: __ZNKSt3__16vectorI10PerceptronNS_9allocatorIS1_EEE7__allocB7v160006Ev, symObjAddr: 0xADA0, symBinAddr: 0x10000C640, symSize: 0x28 }
  - { offsetInCU: 0x1B695, offset: 0x1B695, size: 0x8, addend: 0x0, symName: __ZNKSt3__19allocatorI10PerceptronE8max_sizeB7v160006Ev, symObjAddr: 0xADC8, symBinAddr: 0x10000C668, symSize: 0x14 }
  - { offsetInCU: 0x1B6BA, offset: 0x1B6BA, size: 0x8, addend: 0x0, symName: __ZNKSt3__117__compressed_pairIP10PerceptronNS_9allocatorIS1_EEE6secondB7v160006Ev, symObjAddr: 0xADDC, symBinAddr: 0x10000C67C, symSize: 0x24 }
  - { offsetInCU: 0x1B6DF, offset: 0x1B6DF, size: 0x8, addend: 0x0, symName: __ZNKSt3__122__compressed_pair_elemINS_9allocatorI10PerceptronEELi1ELb1EE5__getB7v160006Ev, symObjAddr: 0xAE00, symBinAddr: 0x10000C6A0, symSize: 0x14 }
  - { offsetInCU: 0x1B704, offset: 0x1B704, size: 0x8, addend: 0x0, symName: __ZNSt3__114__split_bufferI10PerceptronRNS_9allocatorIS1_EEEC2EmmS4_, symObjAddr: 0xAE14, symBinAddr: 0x10000C6B4, symSize: 0xD4 }
  - { offsetInCU: 0x1B776, offset: 0x1B776, size: 0x8, addend: 0x0, symName: __ZNSt3__117__compressed_pairIP10PerceptronRNS_9allocatorIS1_EEEC1B7v160006IDnS5_EEOT_OT0_, symObjAddr: 0xAEE8, symBinAddr: 0x10000C788, symSize: 0x3C }
  - { offsetInCU: 0x1B7CD, offset: 0x1B7CD, size: 0x8, addend: 0x0, symName: __ZNSt3__114__split_bufferI10PerceptronRNS_9allocatorIS1_EEE7__allocB7v160006Ev, symObjAddr: 0xAF64, symBinAddr: 0x10000C804, symSize: 0x28 }
  - { offsetInCU: 0x1B7F2, offset: 0x1B7F2, size: 0x8, addend: 0x0, symName: __ZNSt3__114__split_bufferI10PerceptronRNS_9allocatorIS1_EEE9__end_capB7v160006Ev, symObjAddr: 0xAF8C, symBinAddr: 0x10000C82C, symSize: 0x28 }
  - { offsetInCU: 0x1B817, offset: 0x1B817, size: 0x8, addend: 0x0, symName: __ZNSt3__117__compressed_pairIP10PerceptronRNS_9allocatorIS1_EEEC2B7v160006IDnS5_EEOT_OT0_, symObjAddr: 0xAFB4, symBinAddr: 0x10000C854, symSize: 0x48 }
  - { offsetInCU: 0x1B86E, offset: 0x1B86E, size: 0x8, addend: 0x0, symName: __ZNSt3__122__compressed_pair_elemIRNS_9allocatorI10PerceptronEELi1ELb0EEC2B7v160006IS4_vEEOT_, symObjAddr: 0xAFFC, symBinAddr: 0x10000C89C, symSize: 0x20 }
  - { offsetInCU: 0x1B8AF, offset: 0x1B8AF, size: 0x8, addend: 0x0, symName: __ZNSt3__19allocatorI10PerceptronE8allocateB7v160006Em, symObjAddr: 0xB01C, symBinAddr: 0x10000C8BC, symSize: 0x58 }
  - { offsetInCU: 0x1B8E2, offset: 0x1B8E2, size: 0x8, addend: 0x0, symName: __ZNSt3__117__compressed_pairIP10PerceptronRNS_9allocatorIS1_EEE6secondB7v160006Ev, symObjAddr: 0xB074, symBinAddr: 0x10000C914, symSize: 0x28 }
  - { offsetInCU: 0x1B907, offset: 0x1B907, size: 0x8, addend: 0x0, symName: __ZNSt3__122__compressed_pair_elemIRNS_9allocatorI10PerceptronEELi1ELb0EE5__getB7v160006Ev, symObjAddr: 0xB09C, symBinAddr: 0x10000C93C, symSize: 0x18 }
  - { offsetInCU: 0x1B92C, offset: 0x1B92C, size: 0x8, addend: 0x0, symName: __ZNSt3__117__compressed_pairIP10PerceptronRNS_9allocatorIS1_EEE5firstB7v160006Ev, symObjAddr: 0xB0B4, symBinAddr: 0x10000C954, symSize: 0x24 }
  - { offsetInCU: 0x1B951, offset: 0x1B951, size: 0x8, addend: 0x0, symName: __ZNSt3__116reverse_iteratorIP10PerceptronEC1B7v160006ES2_, symObjAddr: 0xB204, symBinAddr: 0x10000CAA4, symSize: 0x34 }
  - { offsetInCU: 0x1B988, offset: 0x1B988, size: 0x8, addend: 0x0, symName: __ZNKSt3__116reverse_iteratorIP10PerceptronE4baseB7v160006Ev, symObjAddr: 0xB238, symBinAddr: 0x10000CAD8, symSize: 0x18 }
  - { offsetInCU: 0x1B9AD, offset: 0x1B9AD, size: 0x8, addend: 0x0, symName: __ZNKSt3__16vectorI10PerceptronNS_9allocatorIS1_EEE14__annotate_newB7v160006Em, symObjAddr: 0xB28C, symBinAddr: 0x10000CB2C, symSize: 0xAC }
  - { offsetInCU: 0x1B9E1, offset: 0x1B9E1, size: 0x8, addend: 0x0, symName: __ZNSt3__129_AllocatorDestroyRangeReverseINS_9allocatorI10PerceptronEENS_16reverse_iteratorIPS2_EEEC1B7v160006ERS3_RS6_S9_, symObjAddr: 0xB394, symBinAddr: 0x10000CC34, symSize: 0x44 }
  - { offsetInCU: 0x1BA37, offset: 0x1BA37, size: 0x8, addend: 0x0, symName: __ZNKSt3__116reverse_iteratorIP10PerceptronEdeB7v160006Ev, symObjAddr: 0xB444, symBinAddr: 0x10000CCE4, symSize: 0x28 }
  - { offsetInCU: 0x1BA6A, offset: 0x1BA6A, size: 0x8, addend: 0x0, symName: __ZNSt3__116reverse_iteratorIP10PerceptronEppB7v160006Ev, symObjAddr: 0xB46C, symBinAddr: 0x10000CD0C, symSize: 0x20 }
  - { offsetInCU: 0x1BA8F, offset: 0x1BA8F, size: 0x8, addend: 0x0, symName: __ZNSt3__128__exception_guard_exceptionsINS_29_AllocatorDestroyRangeReverseINS_9allocatorI10PerceptronEENS_16reverse_iteratorIPS3_EEEEE10__completeB7v160006Ev, symObjAddr: 0xB48C, symBinAddr: 0x10000CD2C, symSize: 0x1C }
  - { offsetInCU: 0x1BAB4, offset: 0x1BAB4, size: 0x8, addend: 0x0, symName: __ZNSt3__128__exception_guard_exceptionsINS_29_AllocatorDestroyRangeReverseINS_9allocatorI10PerceptronEENS_16reverse_iteratorIPS3_EEEEED1B7v160006Ev, symObjAddr: 0xB4A8, symBinAddr: 0x10000CD48, symSize: 0x2C }
  - { offsetInCU: 0x1BADD, offset: 0x1BADD, size: 0x8, addend: 0x0, symName: __ZNSt3__128__exception_guard_exceptionsINS_29_AllocatorDestroyRangeReverseINS_9allocatorI10PerceptronEENS_16reverse_iteratorIPS3_EEEEEC1B7v160006ES8_, symObjAddr: 0xB4D4, symBinAddr: 0x10000CD74, symSize: 0x34 }
  - { offsetInCU: 0x1BB15, offset: 0x1BB15, size: 0x8, addend: 0x0, symName: __ZNSt3__128__exception_guard_exceptionsINS_29_AllocatorDestroyRangeReverseINS_9allocatorI10PerceptronEENS_16reverse_iteratorIPS3_EEEEEC2B7v160006ES8_, symObjAddr: 0xB508, symBinAddr: 0x10000CDA8, symSize: 0x30 }
  - { offsetInCU: 0x1BB4D, offset: 0x1BB4D, size: 0x8, addend: 0x0, symName: __ZNSt3__129_AllocatorDestroyRangeReverseINS_9allocatorI10PerceptronEENS_16reverse_iteratorIPS2_EEEC2B7v160006ERS3_RS6_S9_, symObjAddr: 0xB538, symBinAddr: 0x10000CDD8, symSize: 0x38 }
  - { offsetInCU: 0x1BBA8, offset: 0x1BBA8, size: 0x8, addend: 0x0, symName: __ZNSt3__119__to_address_helperINS_16reverse_iteratorIP10PerceptronEEvE6__callB7v160006ERKS4_, symObjAddr: 0xB570, symBinAddr: 0x10000CE10, symSize: 0x38 }
  - { offsetInCU: 0x1BBCB, offset: 0x1BBCB, size: 0x8, addend: 0x0, symName: __ZNKSt3__116reverse_iteratorIP10PerceptronEptB7v160006Ev, symObjAddr: 0xB5A8, symBinAddr: 0x10000CE48, symSize: 0x24 }
  - { offsetInCU: 0x1BBF0, offset: 0x1BBF0, size: 0x8, addend: 0x0, symName: __ZNSt3__128__exception_guard_exceptionsINS_29_AllocatorDestroyRangeReverseINS_9allocatorI10PerceptronEENS_16reverse_iteratorIPS3_EEEEED2B7v160006Ev, symObjAddr: 0xB5CC, symBinAddr: 0x10000CE6C, symSize: 0x50 }
  - { offsetInCU: 0x1BC19, offset: 0x1BC19, size: 0x8, addend: 0x0, symName: __ZNKSt3__129_AllocatorDestroyRangeReverseINS_9allocatorI10PerceptronEENS_16reverse_iteratorIPS2_EEEclB7v160006Ev, symObjAddr: 0xB61C, symBinAddr: 0x10000CEBC, symSize: 0xB4 }
  - { offsetInCU: 0x1BC3F, offset: 0x1BC3F, size: 0x8, addend: 0x0, symName: __ZNSt3__116reverse_iteratorINS0_IP10PerceptronEEEC1B7v160006ES3_, symObjAddr: 0xB740, symBinAddr: 0x10000CFE0, symSize: 0x3C }
  - { offsetInCU: 0x1BC76, offset: 0x1BC76, size: 0x8, addend: 0x0, symName: __ZNSt3__116reverse_iteratorINS0_IP10PerceptronEEEppB7v160006Ev, symObjAddr: 0xB800, symBinAddr: 0x10000D0A0, symSize: 0x30 }
  - { offsetInCU: 0x1BC9B, offset: 0x1BC9B, size: 0x8, addend: 0x0, symName: __ZNKSt3__116reverse_iteratorINS0_IP10PerceptronEEE4baseB7v160006Ev, symObjAddr: 0xB830, symBinAddr: 0x10000D0D0, symSize: 0x24 }
  - { offsetInCU: 0x1BCC5, offset: 0x1BCC5, size: 0x8, addend: 0x0, symName: __ZNSt3__119__to_address_helperINS_16reverse_iteratorINS1_IP10PerceptronEEEEvE6__callB7v160006ERKS5_, symObjAddr: 0xB854, symBinAddr: 0x10000D0F4, symSize: 0x38 }
  - { offsetInCU: 0x1BCE8, offset: 0x1BCE8, size: 0x8, addend: 0x0, symName: __ZNKSt3__116reverse_iteratorINS0_IP10PerceptronEEEptB7v160006Ev, symObjAddr: 0xB88C, symBinAddr: 0x10000D12C, symSize: 0x24 }
  - { offsetInCU: 0x1BD0D, offset: 0x1BD0D, size: 0x8, addend: 0x0, symName: __ZNKSt3__116reverse_iteratorINS0_IP10PerceptronEEEdeB7v160006Ev, symObjAddr: 0xB8B0, symBinAddr: 0x10000D150, symSize: 0x34 }
  - { offsetInCU: 0x1BD40, offset: 0x1BD40, size: 0x8, addend: 0x0, symName: __ZNSt3__116reverse_iteratorIP10PerceptronEmmB7v160006Ev, symObjAddr: 0xB8E4, symBinAddr: 0x10000D184, symSize: 0x20 }
  - { offsetInCU: 0x1BD65, offset: 0x1BD65, size: 0x8, addend: 0x0, symName: __ZNSt3__116reverse_iteratorINS0_IP10PerceptronEEEC2B7v160006ES3_, symObjAddr: 0xB904, symBinAddr: 0x10000D1A4, symSize: 0x2C }
  - { offsetInCU: 0x1BD9C, offset: 0x1BD9C, size: 0x8, addend: 0x0, symName: __ZNSt3__116reverse_iteratorIP10PerceptronEC2B7v160006ES2_, symObjAddr: 0xB930, symBinAddr: 0x10000D1D0, symSize: 0x28 }
  - { offsetInCU: 0x1BDD3, offset: 0x1BDD3, size: 0x8, addend: 0x0, symName: __ZNSt3__114__split_bufferI10PerceptronRNS_9allocatorIS1_EEED2Ev, symObjAddr: 0xB958, symBinAddr: 0x10000D1F8, symSize: 0x8C }
  - { offsetInCU: 0x1BDFE, offset: 0x1BDFE, size: 0x8, addend: 0x0, symName: __ZNSt3__114__split_bufferI10PerceptronRNS_9allocatorIS1_EEE5clearB7v160006Ev, symObjAddr: 0xB9E4, symBinAddr: 0x10000D284, symSize: 0x28 }
  - { offsetInCU: 0x1BE23, offset: 0x1BE23, size: 0x8, addend: 0x0, symName: __ZNKSt3__114__split_bufferI10PerceptronRNS_9allocatorIS1_EEE8capacityB7v160006Ev, symObjAddr: 0xBA0C, symBinAddr: 0x10000D2AC, symSize: 0x40 }
  - { offsetInCU: 0x1BE48, offset: 0x1BE48, size: 0x8, addend: 0x0, symName: __ZNSt3__114__split_bufferI10PerceptronRNS_9allocatorIS1_EEE17__destruct_at_endB7v160006EPS1_, symObjAddr: 0xBA4C, symBinAddr: 0x10000D2EC, symSize: 0x2C }
  - { offsetInCU: 0x1BE7B, offset: 0x1BE7B, size: 0x8, addend: 0x0, symName: __ZNSt3__114__split_bufferI10PerceptronRNS_9allocatorIS1_EEE17__destruct_at_endB7v160006EPS1_NS_17integral_constantIbLb0EEE, symObjAddr: 0xBA78, symBinAddr: 0x10000D318, symSize: 0x80 }
  - { offsetInCU: 0x1BEB9, offset: 0x1BEB9, size: 0x8, addend: 0x0, symName: __ZNKSt3__114__split_bufferI10PerceptronRNS_9allocatorIS1_EEE9__end_capB7v160006Ev, symObjAddr: 0xBAF8, symBinAddr: 0x10000D398, symSize: 0x28 }
  - { offsetInCU: 0x1BEDE, offset: 0x1BEDE, size: 0x8, addend: 0x0, symName: __ZNKSt3__117__compressed_pairIP10PerceptronRNS_9allocatorIS1_EEE5firstB7v160006Ev, symObjAddr: 0xBB20, symBinAddr: 0x10000D3C0, symSize: 0x24 }
  - { offsetInCU: 0x1BF03, offset: 0x1BF03, size: 0x8, addend: 0x0, symName: __ZNSt3__16vectorIdNS_9allocatorIdEEEC2ERKS3_, symObjAddr: 0xBB44, symBinAddr: 0x10000D3E4, symSize: 0x110 }
  - { offsetInCU: 0x1BF61, offset: 0x1BF61, size: 0x8, addend: 0x0, symName: __ZNSt3__116allocator_traitsINS_9allocatorIdEEE37select_on_container_copy_constructionB7v160006IS2_vvEES2_RKS2_, symObjAddr: 0xBC54, symBinAddr: 0x10000D4F4, symSize: 0x10 }
  - { offsetInCU: 0x1BF90, offset: 0x1BF90, size: 0x8, addend: 0x0, symName: __ZNKSt3__19basic_iosIcNS_11char_traitsIcEEE5widenB7v160006Ec, symObjAddr: 0xBC64, symBinAddr: 0x10000D504, symSize: 0x84 }
  - { offsetInCU: 0x1BFFC, offset: 0x1BFFC, size: 0x8, addend: 0x0, symName: __ZNKSt3__15ctypeIcE5widenB7v160006Ec, symObjAddr: 0xBD14, symBinAddr: 0x10000D5B4, symSize: 0x38 }
  - { offsetInCU: 0x1C030, offset: 0x1C030, size: 0x8, addend: 0x0, symName: __ZNSt3__111char_traitsIcE6lengthEPKc, symObjAddr: 0xBF38, symBinAddr: 0x10000D7D8, symSize: 0x34 }
  - { offsetInCU: 0x1C071, offset: 0x1C071, size: 0x8, addend: 0x0, symName: __ZNKSt3__113basic_ostreamIcNS_11char_traitsIcEEE6sentrycvbB7v160006Ev, symObjAddr: 0xBF6C, symBinAddr: 0x10000D80C, symSize: 0x1C }
  - { offsetInCU: 0x1C096, offset: 0x1C096, size: 0x8, addend: 0x0, symName: __ZNSt3__119ostreambuf_iteratorIcNS_11char_traitsIcEEEC1B7v160006ERNS_13basic_ostreamIcS2_EE, symObjAddr: 0xC1C8, symBinAddr: 0x10000DA68, symSize: 0x34 }
  - { offsetInCU: 0x1C0CD, offset: 0x1C0CD, size: 0x8, addend: 0x0, symName: __ZNKSt3__18ios_base5flagsB7v160006Ev, symObjAddr: 0xC1FC, symBinAddr: 0x10000DA9C, symSize: 0x18 }
  - { offsetInCU: 0x1C0F4, offset: 0x1C0F4, size: 0x8, addend: 0x0, symName: __ZNKSt3__19basic_iosIcNS_11char_traitsIcEEE4fillB7v160006Ev, symObjAddr: 0xC214, symBinAddr: 0x10000DAB4, symSize: 0x64 }
  - { offsetInCU: 0x1C11A, offset: 0x1C11A, size: 0x8, addend: 0x0, symName: __ZNKSt3__119ostreambuf_iteratorIcNS_11char_traitsIcEEE6failedB7v160006Ev, symObjAddr: 0xC278, symBinAddr: 0x10000DB18, symSize: 0x24 }
  - { offsetInCU: 0x1C13F, offset: 0x1C13F, size: 0x8, addend: 0x0, symName: __ZNSt3__19basic_iosIcNS_11char_traitsIcEEE8setstateB7v160006Ej, symObjAddr: 0xC29C, symBinAddr: 0x10000DB3C, symSize: 0x2C }
  - { offsetInCU: 0x1C173, offset: 0x1C173, size: 0x8, addend: 0x0, symName: __ZNKSt3__18ios_base5widthB7v160006Ev, symObjAddr: 0xC2C8, symBinAddr: 0x10000DB68, symSize: 0x18 }
  - { offsetInCU: 0x1C19A, offset: 0x1C19A, size: 0x8, addend: 0x0, symName: __ZNSt3__115basic_streambufIcNS_11char_traitsIcEEE5sputnB7v160006EPKcl, symObjAddr: 0xC2E0, symBinAddr: 0x10000DB80, symSize: 0x3C }
  - { offsetInCU: 0x1C1DB, offset: 0x1C1DB, size: 0x8, addend: 0x0, symName: __ZNSt3__112basic_stringIcNS_11char_traitsIcEENS_9allocatorIcEEEC1B7v160006Emc, symObjAddr: 0xC31C, symBinAddr: 0x10000DBBC, symSize: 0x3C }
  - { offsetInCU: 0x1C222, offset: 0x1C222, size: 0x8, addend: 0x0, symName: __ZNSt3__112basic_stringIcNS_11char_traitsIcEENS_9allocatorIcEEE4dataB7v160006Ev, symObjAddr: 0xC358, symBinAddr: 0x10000DBF8, symSize: 0x28 }
  - { offsetInCU: 0x1C247, offset: 0x1C247, size: 0x8, addend: 0x0, symName: __ZNSt3__18ios_base5widthB7v160006El, symObjAddr: 0xC380, symBinAddr: 0x10000DC20, symSize: 0x2C }
  - { offsetInCU: 0x1C28C, offset: 0x1C28C, size: 0x8, addend: 0x0, symName: __ZNSt3__112basic_stringIcNS_11char_traitsIcEENS_9allocatorIcEEEC2B7v160006Emc, symObjAddr: 0xC3AC, symBinAddr: 0x10000DC4C, symSize: 0x54 }
  - { offsetInCU: 0x1C2D3, offset: 0x1C2D3, size: 0x8, addend: 0x0, symName: __ZNSt3__117__compressed_pairINS_12basic_stringIcNS_11char_traitsIcEENS_9allocatorIcEEE5__repES5_EC1B7v160006INS_18__default_init_tagESA_EEOT_OT0_, symObjAddr: 0xC400, symBinAddr: 0x10000DCA0, symSize: 0x3C }
  - { offsetInCU: 0x1C32A, offset: 0x1C32A, size: 0x8, addend: 0x0, symName: __ZNSt3__117__compressed_pairINS_12basic_stringIcNS_11char_traitsIcEENS_9allocatorIcEEE5__repES5_EC2B7v160006INS_18__default_init_tagESA_EEOT_OT0_, symObjAddr: 0xC44C, symBinAddr: 0x10000DCEC, symSize: 0x3C }
  - { offsetInCU: 0x1C381, offset: 0x1C381, size: 0x8, addend: 0x0, symName: __ZNSt3__122__compressed_pair_elemINS_12basic_stringIcNS_11char_traitsIcEENS_9allocatorIcEEE5__repELi0ELb0EEC2B7v160006ENS_18__default_init_tagE, symObjAddr: 0xC488, symBinAddr: 0x10000DD28, symSize: 0x14 }
  - { offsetInCU: 0x1C3B4, offset: 0x1C3B4, size: 0x8, addend: 0x0, symName: __ZNSt3__122__compressed_pair_elemINS_9allocatorIcEELi1ELb1EEC2B7v160006ENS_18__default_init_tagE, symObjAddr: 0xC49C, symBinAddr: 0x10000DD3C, symSize: 0x2C }
  - { offsetInCU: 0x1C3E7, offset: 0x1C3E7, size: 0x8, addend: 0x0, symName: __ZNSt3__19allocatorIcEC2B7v160006Ev, symObjAddr: 0xC4C8, symBinAddr: 0x10000DD68, symSize: 0x2C }
  - { offsetInCU: 0x1C410, offset: 0x1C410, size: 0x8, addend: 0x0, symName: __ZNSt3__116__non_trivial_ifILb1ENS_9allocatorIcEEEC2B7v160006Ev, symObjAddr: 0xC4F4, symBinAddr: 0x10000DD94, symSize: 0x14 }
  - { offsetInCU: 0x1C439, offset: 0x1C439, size: 0x8, addend: 0x0, symName: __ZNSt3__112basic_stringIcNS_11char_traitsIcEENS_9allocatorIcEEE13__get_pointerB7v160006Ev, symObjAddr: 0xC51C, symBinAddr: 0x10000DDBC, symSize: 0x54 }
  - { offsetInCU: 0x1C45E, offset: 0x1C45E, size: 0x8, addend: 0x0, symName: __ZNKSt3__112basic_stringIcNS_11char_traitsIcEENS_9allocatorIcEEE9__is_longB7v160006Ev, symObjAddr: 0xC570, symBinAddr: 0x10000DE10, symSize: 0x38 }
  - { offsetInCU: 0x1C483, offset: 0x1C483, size: 0x8, addend: 0x0, symName: __ZNSt3__112basic_stringIcNS_11char_traitsIcEENS_9allocatorIcEEE18__get_long_pointerB7v160006Ev, symObjAddr: 0xC5A8, symBinAddr: 0x10000DE48, symSize: 0x28 }
  - { offsetInCU: 0x1C4A8, offset: 0x1C4A8, size: 0x8, addend: 0x0, symName: __ZNSt3__112basic_stringIcNS_11char_traitsIcEENS_9allocatorIcEEE19__get_short_pointerB7v160006Ev, symObjAddr: 0xC5D0, symBinAddr: 0x10000DE70, symSize: 0x28 }
  - { offsetInCU: 0x1C4CD, offset: 0x1C4CD, size: 0x8, addend: 0x0, symName: __ZNKSt3__117__compressed_pairINS_12basic_stringIcNS_11char_traitsIcEENS_9allocatorIcEEE5__repES5_E5firstB7v160006Ev, symObjAddr: 0xC5F8, symBinAddr: 0x10000DE98, symSize: 0x24 }
  - { offsetInCU: 0x1C4F2, offset: 0x1C4F2, size: 0x8, addend: 0x0, symName: __ZNKSt3__122__compressed_pair_elemINS_12basic_stringIcNS_11char_traitsIcEENS_9allocatorIcEEE5__repELi0ELb0EE5__getB7v160006Ev, symObjAddr: 0xC61C, symBinAddr: 0x10000DEBC, symSize: 0x14 }
  - { offsetInCU: 0x1C517, offset: 0x1C517, size: 0x8, addend: 0x0, symName: __ZNSt3__117__compressed_pairINS_12basic_stringIcNS_11char_traitsIcEENS_9allocatorIcEEE5__repES5_E5firstB7v160006Ev, symObjAddr: 0xC630, symBinAddr: 0x10000DED0, symSize: 0x24 }
  - { offsetInCU: 0x1C53C, offset: 0x1C53C, size: 0x8, addend: 0x0, symName: __ZNSt3__122__compressed_pair_elemINS_12basic_stringIcNS_11char_traitsIcEENS_9allocatorIcEEE5__repELi0ELb0EE5__getB7v160006Ev, symObjAddr: 0xC654, symBinAddr: 0x10000DEF4, symSize: 0x14 }
  - { offsetInCU: 0x1C561, offset: 0x1C561, size: 0x8, addend: 0x0, symName: __ZNSt3__114pointer_traitsIPcE10pointer_toB7v160006ERc, symObjAddr: 0xC668, symBinAddr: 0x10000DF08, symSize: 0x14 }
  - { offsetInCU: 0x1C584, offset: 0x1C584, size: 0x8, addend: 0x0, symName: __ZNSt3__119ostreambuf_iteratorIcNS_11char_traitsIcEEEC2B7v160006ERNS_13basic_ostreamIcS2_EE, symObjAddr: 0xC67C, symBinAddr: 0x10000DF1C, symSize: 0x54 }
  - { offsetInCU: 0x1C5BB, offset: 0x1C5BB, size: 0x8, addend: 0x0, symName: __ZNKSt3__19basic_iosIcNS_11char_traitsIcEEE5rdbufB7v160006Ev, symObjAddr: 0xC6D0, symBinAddr: 0x10000DF70, symSize: 0x24 }
  - { offsetInCU: 0x1C5E1, offset: 0x1C5E1, size: 0x8, addend: 0x0, symName: __ZNKSt3__18ios_base5rdbufB7v160006Ev, symObjAddr: 0xC6F4, symBinAddr: 0x10000DF94, symSize: 0x18 }
  - { offsetInCU: 0x1C606, offset: 0x1C606, size: 0x8, addend: 0x0, symName: __ZNSt3__111char_traitsIcE11eq_int_typeEii, symObjAddr: 0xC70C, symBinAddr: 0x10000DFAC, symSize: 0x28 }
  - { offsetInCU: 0x1C637, offset: 0x1C637, size: 0x8, addend: 0x0, symName: __ZNSt3__111char_traitsIcE3eofEv, symObjAddr: 0xC734, symBinAddr: 0x10000DFD4, symSize: 0x8 }
  - { offsetInCU: 0x1C64B, offset: 0x1C64B, size: 0x8, addend: 0x0, symName: __ZNSt3__18ios_base8setstateB7v160006Ej, symObjAddr: 0xC73C, symBinAddr: 0x10000DFDC, symSize: 0x34 }
  - { offsetInCU: 0x1C680, offset: 0x1C680, size: 0x8, addend: 0x0, symName: __ZNSt3__16vectorIdNS_9allocatorIdEEE22__construct_one_at_endB7v160006IJdEEEvDpOT_, symObjAddr: 0xC794, symBinAddr: 0x10000E034, symSize: 0x90 }
  - { offsetInCU: 0x1C6CE, offset: 0x1C6CE, size: 0x8, addend: 0x0, symName: __ZNSt3__16vectorIdNS_9allocatorIdEEE24__emplace_back_slow_pathIJdEEEvDpOT_, symObjAddr: 0xC824, symBinAddr: 0x10000E0C4, symSize: 0xD8 }
  - { offsetInCU: 0x1C72C, offset: 0x1C72C, size: 0x8, addend: 0x0, symName: __ZNSt3__16vectorIdNS_9allocatorIdEEE4backB7v160006Ev, symObjAddr: 0xC8FC, symBinAddr: 0x10000E19C, symSize: 0x1C }
  - { offsetInCU: 0x1C751, offset: 0x1C751, size: 0x8, addend: 0x0, symName: __ZNSt3__116allocator_traitsINS_9allocatorIdEEE9constructB7v160006IdJdEvEEvRS2_PT_DpOT0_, symObjAddr: 0xC918, symBinAddr: 0x10000E1B8, symSize: 0x34 }
  - { offsetInCU: 0x1C7A8, offset: 0x1C7A8, size: 0x8, addend: 0x0, symName: __ZNSt3__19allocatorIdE9constructB7v160006IdJdEEEvPT_DpOT0_, symObjAddr: 0xC94C, symBinAddr: 0x10000E1EC, symSize: 0x28 }
  - { offsetInCU: 0x665D, offset: 0x230CF, size: 0x8, addend: 0x0, symName: __ZNSt3__17advanceB7v160006IPKdmmvEEvRT_T0_, symObjAddr: 0x48F4, symBinAddr: 0x1000106A0, symSize: 0x50 }
  - { offsetInCU: 0x7E5F, offset: 0x248D1, size: 0x8, addend: 0x0, symName: __ZNSt3__17getlineB7v160006IcNS_11char_traitsIcEENS_9allocatorIcEEEERNS_13basic_istreamIT_T0_EES9_RNS_12basic_stringIS6_S7_T1_EE, symObjAddr: 0x458, symBinAddr: 0x10000E5FC, symSize: 0x5C }
  - { offsetInCU: 0x883F, offset: 0x252B1, size: 0x8, addend: 0x0, symName: __ZNSt3__111max_elementB7v160006INS_11__wrap_iterIPdEEEET_S4_S4_, symObjAddr: 0x1894, symBinAddr: 0x10000F890, symSize: 0x44 }
  - { offsetInCU: 0x8882, offset: 0x252F4, size: 0x8, addend: 0x0, symName: __ZNSt3__18distanceB7v160006INS_11__wrap_iterIPdEEEENS_15iterator_traitsIT_E15difference_typeES5_S5_, symObjAddr: 0x1938, symBinAddr: 0x10000F8D4, symSize: 0x3C }
  - { offsetInCU: 0x88C5, offset: 0x25337, size: 0x8, addend: 0x0, symName: __ZNSt3__111max_elementB7v160006INS_11__wrap_iterIPdEENS_6__lessIddEEEET_S6_S6_T0_, symObjAddr: 0x1B4C, symBinAddr: 0x10000FA7C, symSize: 0x48 }
  - { offsetInCU: 0x891F, offset: 0x25391, size: 0x8, addend: 0x0, symName: __ZNSt3__113__max_elementB7v160006IRNS_6__lessIddEENS_11__wrap_iterIPdEEEET0_S7_S7_T_, symObjAddr: 0x1B94, symBinAddr: 0x10000FAC4, symSize: 0xB8 }
  - { offsetInCU: 0x89D0, offset: 0x25442, size: 0x8, addend: 0x0, symName: __ZNSt3__110__distanceB7v160006INS_11__wrap_iterIPdEEEENS_15iterator_traitsIT_E15difference_typeES5_S5_NS_26random_access_iterator_tagE, symObjAddr: 0x1C80, symBinAddr: 0x10000FBB0, symSize: 0x30 }
  - { offsetInCU: 0x8A1D, offset: 0x2548F, size: 0x8, addend: 0x0, symName: __ZNSt3__1miB7v160006IPdS1_EEDTmicldtfp_4baseEcldtfp0_4baseEERKNS_11__wrap_iterIT_EERKNS3_IT0_EE, symObjAddr: 0x1CB0, symBinAddr: 0x10000FBE0, symSize: 0x48 }
  - { offsetInCU: 0x8A69, offset: 0x254DB, size: 0x8, addend: 0x0, symName: __ZNSt3__130__uninitialized_allocator_copyB7v160006INS_9allocatorIdEEddLPv0EEEPT0_RT_PKS4_S9_S5_, symObjAddr: 0x3AC8, symBinAddr: 0x10000FE78, symSize: 0x38 }
  - { offsetInCU: 0x8AE1, offset: 0x25553, size: 0x8, addend: 0x0, symName: __ZNSt3__14copyB7v160006IPKdPdEET0_T_S5_S4_, symObjAddr: 0x3B70, symBinAddr: 0x10000FEB0, symSize: 0x40 }
  - { offsetInCU: 0x8B3B, offset: 0x255AD, size: 0x8, addend: 0x0, symName: __ZNSt3__16__copyB7v160006INS_17_ClassicAlgPolicyEPKdS3_PdEENS_4pairIT0_T2_EES6_T1_S7_, symObjAddr: 0x3BB0, symBinAddr: 0x10000FEF0, symSize: 0x44 }
  - { offsetInCU: 0x8BA7, offset: 0x25619, size: 0x8, addend: 0x0, symName: __ZNSt3__123__dispatch_copy_or_moveB7v160006INS_17_ClassicAlgPolicyENS_11__copy_loopIS1_EENS_14__copy_trivialEPKdS6_PdEENS_4pairIT2_T4_EES9_T3_SA_, symObjAddr: 0x3BF4, symBinAddr: 0x10000FF34, symSize: 0x44 }
  - { offsetInCU: 0x8C25, offset: 0x25697, size: 0x8, addend: 0x0, symName: __ZNSt3__121__unwrap_and_dispatchB7v160006INS_10__overloadINS_11__copy_loopINS_17_ClassicAlgPolicyEEENS_14__copy_trivialEEEPKdS8_PdLi0EEENS_4pairIT0_T2_EESB_T1_SC_, symObjAddr: 0x3C38, symBinAddr: 0x10000FF78, symSize: 0xB4 }
  - { offsetInCU: 0x8CB3, offset: 0x25725, size: 0x8, addend: 0x0, symName: __ZNSt3__114__unwrap_rangeB7v160006IPKdS2_EENS_4pairIT0_S4_EET_S6_, symObjAddr: 0x3CEC, symBinAddr: 0x10001002C, symSize: 0x60 }
  - { offsetInCU: 0x8E84, offset: 0x258F6, size: 0x8, addend: 0x0, symName: __ZNSt3__19make_pairB7v160006IPKdPdEENS_4pairINS_18__unwrap_ref_decayIT_E4typeENS5_IT0_E4typeEEEOS6_OS9_, symObjAddr: 0x3DB8, symBinAddr: 0x1000100D4, symSize: 0x38 }
  - { offsetInCU: 0x8ED3, offset: 0x25945, size: 0x8, addend: 0x0, symName: __ZNSt3__114__rewrap_rangeB7v160006IPKdS2_EET_S3_T0_, symObjAddr: 0x3DF0, symBinAddr: 0x10001010C, symSize: 0x2C }
  - { offsetInCU: 0x8F1F, offset: 0x25991, size: 0x8, addend: 0x0, symName: __ZNSt3__19make_pairB7v160006IPKdS2_EENS_4pairINS_18__unwrap_ref_decayIT_E4typeENS4_IT0_E4typeEEEOS5_OS8_, symObjAddr: 0x3E58, symBinAddr: 0x100010138, symSize: 0x38 }
  - { offsetInCU: 0x8F6E, offset: 0x259E0, size: 0x8, addend: 0x0, symName: __ZNSt3__113__unwrap_iterB7v160006IPKdNS_18__unwrap_iter_implIS2_Lb1EEELi0EEEDTclsrT0_8__unwrapclsr3stdE7declvalIT_EEEES6_, symObjAddr: 0x3E90, symBinAddr: 0x100010170, symSize: 0x24 }
  - { offsetInCU: 0x90D9, offset: 0x25B4B, size: 0x8, addend: 0x0, symName: __ZNSt3__112__to_addressB7v160006IKdEEPT_S3_, symObjAddr: 0x3F48, symBinAddr: 0x100010228, symSize: 0x14 }
  - { offsetInCU: 0x910E, offset: 0x25B80, size: 0x8, addend: 0x0, symName: __ZNSt3__119__copy_trivial_implB7v160006IKddEENS_4pairIPT_PT0_EES4_S4_S6_, symObjAddr: 0x3F5C, symBinAddr: 0x10001023C, symSize: 0x84 }
  - { offsetInCU: 0x9176, offset: 0x25BE8, size: 0x8, addend: 0x0, symName: __ZNSt3__19make_pairB7v160006IRPKdPdEENS_4pairINS_18__unwrap_ref_decayIT_E4typeENS6_IT0_E4typeEEEOS7_OSA_, symObjAddr: 0x3FE0, symBinAddr: 0x1000102C0, symSize: 0x38 }
  - { offsetInCU: 0x91C5, offset: 0x25C37, size: 0x8, addend: 0x0, symName: __ZNSt3__113__rewrap_iterB7v160006IPKdS2_NS_18__unwrap_iter_implIS2_Lb1EEEEET_S5_T0_, symObjAddr: 0x411C, symBinAddr: 0x1000103D8, symSize: 0x3C }
  - { offsetInCU: 0x921A, offset: 0x25C8C, size: 0x8, addend: 0x0, symName: __ZNSt3__18distanceB7v160006IPKdEENS_15iterator_traitsIT_E15difference_typeES4_S4_, symObjAddr: 0x48C8, symBinAddr: 0x100010674, symSize: 0x2C }
  - { offsetInCU: 0x925D, offset: 0x25CCF, size: 0x8, addend: 0x0, symName: __ZNSt3__110__distanceB7v160006IPKdEENS_15iterator_traitsIT_E15difference_typeES4_S4_NS_26random_access_iterator_tagE, symObjAddr: 0x4AF4, symBinAddr: 0x1000106F0, symSize: 0x28 }
  - { offsetInCU: 0x92AA, offset: 0x25D1C, size: 0x8, addend: 0x0, symName: __ZNSt3__19__advanceB7v160006IPKdEEvRT_NS_15iterator_traitsIS3_E15difference_typeENS_26random_access_iterator_tagE, symObjAddr: 0x4B30, symBinAddr: 0x100010718, symSize: 0x28 }
  - { offsetInCU: 0x92F3, offset: 0x25D65, size: 0x8, addend: 0x0, symName: __ZNSt3__17getlineB7v160006IcNS_11char_traitsIcEENS_9allocatorIcEEEERNS_13basic_istreamIT_T0_EES9_RNS_12basic_stringIS6_S7_T1_EES6_, symObjAddr: 0x56DC, symBinAddr: 0x100010740, symSize: 0x238 }
  - { offsetInCU: 0x93B1, offset: 0x25E23, size: 0x8, addend: 0x0, symName: __ZNSt3__125__debug_db_invalidate_allB7v160006INS_12basic_stringIcNS_11char_traitsIcEENS_9allocatorIcEEEEEEvPT_, symObjAddr: 0x5BF8, symBinAddr: 0x100010C5C, symSize: 0x10 }
  - { offsetInCU: 0x95CF, offset: 0x26041, size: 0x8, addend: 0x0, symName: __ZNSt3__122__make_exception_guardB7v160006INS_6vectorImNS_9allocatorImEEE16__destroy_vectorEEENS_28__exception_guard_exceptionsIT_EES7_, symObjAddr: 0x72C4, symBinAddr: 0x100011408, symSize: 0x40 }
  - { offsetInCU: 0x9604, offset: 0x26076, size: 0x8, addend: 0x0, symName: __ZNSt3__130__uninitialized_allocator_copyB7v160006INS_9allocatorImEEmmLPv0EEEPT0_RT_PKS4_S9_S5_, symObjAddr: 0x7AA8, symBinAddr: 0x1000115C4, symSize: 0x38 }
  - { offsetInCU: 0x967C, offset: 0x260EE, size: 0x8, addend: 0x0, symName: __ZNSt3__14copyB7v160006IPKmPmEET0_T_S5_S4_, symObjAddr: 0x7B50, symBinAddr: 0x1000115FC, symSize: 0x40 }
  - { offsetInCU: 0x96D6, offset: 0x26148, size: 0x8, addend: 0x0, symName: __ZNSt3__16__copyB7v160006INS_17_ClassicAlgPolicyEPKmS3_PmEENS_4pairIT0_T2_EES6_T1_S7_, symObjAddr: 0x7B90, symBinAddr: 0x10001163C, symSize: 0x44 }
  - { offsetInCU: 0x9742, offset: 0x261B4, size: 0x8, addend: 0x0, symName: __ZNSt3__123__dispatch_copy_or_moveB7v160006INS_17_ClassicAlgPolicyENS_11__copy_loopIS1_EENS_14__copy_trivialEPKmS6_PmEENS_4pairIT2_T4_EES9_T3_SA_, symObjAddr: 0x7BD4, symBinAddr: 0x100011680, symSize: 0x44 }
  - { offsetInCU: 0x97C0, offset: 0x26232, size: 0x8, addend: 0x0, symName: __ZNSt3__121__unwrap_and_dispatchB7v160006INS_10__overloadINS_11__copy_loopINS_17_ClassicAlgPolicyEEENS_14__copy_trivialEEEPKmS8_PmLi0EEENS_4pairIT0_T2_EESB_T1_SC_, symObjAddr: 0x7C18, symBinAddr: 0x1000116C4, symSize: 0xB4 }
  - { offsetInCU: 0x984E, offset: 0x262C0, size: 0x8, addend: 0x0, symName: __ZNSt3__114__unwrap_rangeB7v160006IPKmS2_EENS_4pairIT0_S4_EET_S6_, symObjAddr: 0x7CCC, symBinAddr: 0x100011778, symSize: 0x60 }
  - { offsetInCU: 0x999D, offset: 0x2640F, size: 0x8, addend: 0x0, symName: __ZNSt3__19make_pairB7v160006IPKmPmEENS_4pairINS_18__unwrap_ref_decayIT_E4typeENS5_IT0_E4typeEEEOS6_OS9_, symObjAddr: 0x7D98, symBinAddr: 0x100011820, symSize: 0x38 }
  - { offsetInCU: 0x99EC, offset: 0x2645E, size: 0x8, addend: 0x0, symName: __ZNSt3__114__rewrap_rangeB7v160006IPKmS2_EET_S3_T0_, symObjAddr: 0x7DD0, symBinAddr: 0x100011858, symSize: 0x2C }
  - { offsetInCU: 0x9A38, offset: 0x264AA, size: 0x8, addend: 0x0, symName: __ZNSt3__19make_pairB7v160006IPKmS2_EENS_4pairINS_18__unwrap_ref_decayIT_E4typeENS4_IT0_E4typeEEEOS5_OS8_, symObjAddr: 0x7E38, symBinAddr: 0x100011884, symSize: 0x38 }
  - { offsetInCU: 0x9A87, offset: 0x264F9, size: 0x8, addend: 0x0, symName: __ZNSt3__113__unwrap_iterB7v160006IPKmNS_18__unwrap_iter_implIS2_Lb1EEELi0EEEDTclsrT0_8__unwrapclsr3stdE7declvalIT_EEEES6_, symObjAddr: 0x7E70, symBinAddr: 0x1000118BC, symSize: 0x24 }
  - { offsetInCU: 0x9BF2, offset: 0x26664, size: 0x8, addend: 0x0, symName: __ZNSt3__112__to_addressB7v160006IKmEEPT_S3_, symObjAddr: 0x7F28, symBinAddr: 0x100011974, symSize: 0x14 }
  - { offsetInCU: 0x9C27, offset: 0x26699, size: 0x8, addend: 0x0, symName: __ZNSt3__119__copy_trivial_implB7v160006IKmmEENS_4pairIPT_PT0_EES4_S4_S6_, symObjAddr: 0x7F3C, symBinAddr: 0x100011988, symSize: 0x84 }
  - { offsetInCU: 0x9C8F, offset: 0x26701, size: 0x8, addend: 0x0, symName: __ZNSt3__19make_pairB7v160006IRPKmPmEENS_4pairINS_18__unwrap_ref_decayIT_E4typeENS6_IT0_E4typeEEEOS7_OSA_, symObjAddr: 0x7FC0, symBinAddr: 0x100011A0C, symSize: 0x38 }
  - { offsetInCU: 0x9CDE, offset: 0x26750, size: 0x8, addend: 0x0, symName: __ZNSt3__113__rewrap_iterB7v160006IPKmS2_NS_18__unwrap_iter_implIS2_Lb1EEEEET_S5_T0_, symObjAddr: 0x80FC, symBinAddr: 0x100011B24, symSize: 0x3C }
  - { offsetInCU: 0xC31E, offset: 0x28D90, size: 0x8, addend: 0x0, symName: __Z11read_vectorv, symObjAddr: 0x0, symBinAddr: 0x10000E214, symSize: 0x2F4 }
  - { offsetInCU: 0xC37D, offset: 0x28DEF, size: 0x8, addend: 0x0, symName: __ZNSt3__16vectorIdNS_9allocatorIdEEEC1B7v160006ESt16initializer_listIdE, symObjAddr: 0x2F4, symBinAddr: 0x10000E508, symSize: 0x3C }
  - { offsetInCU: 0xC3B7, offset: 0x28E29, size: 0x8, addend: 0x0, symName: __ZNSt3__112basic_stringIcNS_11char_traitsIcEENS_9allocatorIcEEEC1B7v160006Ev, symObjAddr: 0x330, symBinAddr: 0x10000E544, symSize: 0x2C }
  - { offsetInCU: 0xC3E0, offset: 0x28E52, size: 0x8, addend: 0x0, symName: __ZNSt16initializer_listIdEC1B7v160006Ev, symObjAddr: 0x384, symBinAddr: 0x10000E570, symSize: 0x2C }
  - { offsetInCU: 0xC409, offset: 0x28E7B, size: 0x8, addend: 0x0, symName: __ZNSt3__16vectorIdNS_9allocatorIdEEEaSB7v160006ESt16initializer_listIdE, symObjAddr: 0x3B0, symBinAddr: 0x10000E59C, symSize: 0x60 }
  - { offsetInCU: 0xC51D, offset: 0x28F8F, size: 0x8, addend: 0x0, symName: __ZNSt3__118basic_stringstreamIcNS_11char_traitsIcEENS_9allocatorIcEEEC1B7v160006ERKNS_12basic_stringIcS2_S4_EEj, symObjAddr: 0x4B4, symBinAddr: 0x10000E658, symSize: 0x110 }
  - { offsetInCU: 0xC564, offset: 0x28FD6, size: 0x8, addend: 0x0, symName: __ZNKSt3__19basic_iosIcNS_11char_traitsIcEEEcvbB7v160006Ev, symObjAddr: 0x5C4, symBinAddr: 0x10000E768, symSize: 0x2C }
  - { offsetInCU: 0xC58E, offset: 0x29000, size: 0x8, addend: 0x0, symName: __ZNSt3__118basic_stringstreamIcNS_11char_traitsIcEENS_9allocatorIcEEED1Ev, symObjAddr: 0x70C, symBinAddr: 0x10000E794, symSize: 0x40 }
  - { offsetInCU: 0xC5BA, offset: 0x2902C, size: 0x8, addend: 0x0, symName: _main, symObjAddr: 0x778, symBinAddr: 0x10000E7D4, symSize: 0x104C }
  - { offsetInCU: 0xC6D4, offset: 0x29146, size: 0x8, addend: 0x0, symName: __ZNSt3__16vectorImNS_9allocatorImEEEC1B7v160006ESt16initializer_listImE, symObjAddr: 0x17C4, symBinAddr: 0x10000F820, symSize: 0x3C }
  - { offsetInCU: 0xC70E, offset: 0x29180, size: 0x8, addend: 0x0, symName: __ZNSt3__16vectorIdNS_9allocatorIdEEEaSB7v160006EOS3_, symObjAddr: 0x182C, symBinAddr: 0x10000F85C, symSize: 0x34 }
  - { offsetInCU: 0xC743, offset: 0x291B5, size: 0x8, addend: 0x0, symName: __ZN20MultiLayerPerceptronD1Ev, symObjAddr: 0x19E0, symBinAddr: 0x10000F910, symSize: 0x2C }
  - { offsetInCU: 0xC76E, offset: 0x291E0, size: 0x8, addend: 0x0, symName: __ZNSt16initializer_listIdEC2B7v160006Ev, symObjAddr: 0x1A0C, symBinAddr: 0x10000F93C, symSize: 0x1C }
  - { offsetInCU: 0xC797, offset: 0x29209, size: 0x8, addend: 0x0, symName: __ZNSt3__118basic_stringstreamIcNS_11char_traitsIcEENS_9allocatorIcEEED2Ev, symObjAddr: 0x1A28, symBinAddr: 0x10000F958, symSize: 0x6C }
  - { offsetInCU: 0xC7CF, offset: 0x29241, size: 0x8, addend: 0x0, symName: __ZThn16_NSt3__118basic_stringstreamIcNS_11char_traitsIcEENS_9allocatorIcEEED1Ev, symObjAddr: 0x1A94, symBinAddr: 0x10000F9C4, symSize: 0x1C }
  - { offsetInCU: 0xC7E6, offset: 0x29258, size: 0x8, addend: 0x0, symName: __ZTv0_n24_NSt3__118basic_stringstreamIcNS_11char_traitsIcEENS_9allocatorIcEEED1Ev, symObjAddr: 0x1AB0, symBinAddr: 0x10000F9E0, symSize: 0x28 }
  - { offsetInCU: 0xC802, offset: 0x29274, size: 0x8, addend: 0x0, symName: __ZNSt3__115basic_stringbufIcNS_11char_traitsIcEENS_9allocatorIcEEED1Ev, symObjAddr: 0x1AD8, symBinAddr: 0x10000FA08, symSize: 0x2C }
  - { offsetInCU: 0xC82E, offset: 0x292A0, size: 0x8, addend: 0x0, symName: __ZNSt3__115basic_stringbufIcNS_11char_traitsIcEENS_9allocatorIcEEED2Ev, symObjAddr: 0x1B04, symBinAddr: 0x10000FA34, symSize: 0x48 }
  - { offsetInCU: 0xC864, offset: 0x292D6, size: 0x8, addend: 0x0, symName: __ZNKSt3__16__lessIddEclB7v160006ERKdS3_, symObjAddr: 0x1C4C, symBinAddr: 0x10000FB7C, symSize: 0x34 }
  - { offsetInCU: 0xC8A5, offset: 0x29317, size: 0x8, addend: 0x0, symName: __ZN20MultiLayerPerceptronD2Ev, symObjAddr: 0x1D58, symBinAddr: 0x10000FC28, symSize: 0x50 }
  - { offsetInCU: 0xC8D0, offset: 0x29342, size: 0x8, addend: 0x0, symName: __ZNSt3__16vectorIdNS_9allocatorIdEEEC2B7v160006ESt16initializer_listIdE, symObjAddr: 0x2EEC, symBinAddr: 0x10000FC78, symSize: 0x124 }
  - { offsetInCU: 0xC925, offset: 0x29397, size: 0x8, addend: 0x0, symName: __ZNKSt16initializer_listIdE4sizeB7v160006Ev, symObjAddr: 0x30D0, symBinAddr: 0x10000FD9C, symSize: 0x18 }
  - { offsetInCU: 0xC94A, offset: 0x293BC, size: 0x8, addend: 0x0, symName: __ZNSt3__16vectorIdNS_9allocatorIdEEE18__construct_at_endIPKdLi0EEEvT_S7_m, symObjAddr: 0x3194, symBinAddr: 0x10000FDB4, symSize: 0x8C }
  - { offsetInCU: 0xC9BB, offset: 0x2942D, size: 0x8, addend: 0x0, symName: __ZNKSt16initializer_listIdE5beginB7v160006Ev, symObjAddr: 0x3220, symBinAddr: 0x10000FE40, symSize: 0x18 }
  - { offsetInCU: 0xC9E0, offset: 0x29452, size: 0x8, addend: 0x0, symName: __ZNKSt16initializer_listIdE3endB7v160006Ev, symObjAddr: 0x3238, symBinAddr: 0x10000FE58, symSize: 0x20 }
  - { offsetInCU: 0xCA41, offset: 0x294B3, size: 0x8, addend: 0x0, symName: __ZNKSt3__114__copy_trivialclB7v160006IKddLi0EEENS_4pairIPT_PT0_EES5_S5_S7_, symObjAddr: 0x3D4C, symBinAddr: 0x10001008C, symSize: 0x48 }
  - { offsetInCU: 0xCAC6, offset: 0x29538, size: 0x8, addend: 0x0, symName: __ZNSt3__14pairIPKdS2_EC1B7v160006IS2_S2_LPv0EEEOT_OT0_, symObjAddr: 0x3EB4, symBinAddr: 0x100010194, symSize: 0x3C }
  - { offsetInCU: 0xCB23, offset: 0x29595, size: 0x8, addend: 0x0, symName: __ZNSt3__14pairIPKdS2_EC2B7v160006IS2_S2_LPv0EEEOT_OT0_, symObjAddr: 0x3EF0, symBinAddr: 0x1000101D0, symSize: 0x34 }
  - { offsetInCU: 0xCB80, offset: 0x295F2, size: 0x8, addend: 0x0, symName: __ZNSt3__118__unwrap_iter_implIPKdLb1EE8__unwrapB7v160006ES2_, symObjAddr: 0x3F24, symBinAddr: 0x100010204, symSize: 0x24 }
  - { offsetInCU: 0xCBAD, offset: 0x2961F, size: 0x8, addend: 0x0, symName: __ZNSt3__14pairIPKdPdEC1B7v160006IRS2_S3_LPv0EEEOT_OT0_, symObjAddr: 0x4018, symBinAddr: 0x1000102F8, symSize: 0x3C }
  - { offsetInCU: 0xCC0A, offset: 0x2967C, size: 0x8, addend: 0x0, symName: __ZNSt3__14pairIPKdPdEC2B7v160006IRS2_S3_LPv0EEEOT_OT0_, symObjAddr: 0x4054, symBinAddr: 0x100010334, symSize: 0x34 }
  - { offsetInCU: 0xCC67, offset: 0x296D9, size: 0x8, addend: 0x0, symName: __ZNSt3__14pairIPKdPdEC1B7v160006IS2_S3_LPv0EEEOT_OT0_, symObjAddr: 0x40AC, symBinAddr: 0x100010368, symSize: 0x3C }
  - { offsetInCU: 0xCCC4, offset: 0x29736, size: 0x8, addend: 0x0, symName: __ZNSt3__14pairIPKdPdEC2B7v160006IS2_S3_LPv0EEEOT_OT0_, symObjAddr: 0x40E8, symBinAddr: 0x1000103A4, symSize: 0x34 }
  - { offsetInCU: 0xCD21, offset: 0x29793, size: 0x8, addend: 0x0, symName: __ZNSt3__118__unwrap_iter_implIPKdLb1EE8__rewrapB7v160006ES2_S2_, symObjAddr: 0x4158, symBinAddr: 0x100010414, symSize: 0x50 }
  - { offsetInCU: 0xCD52, offset: 0x297C4, size: 0x8, addend: 0x0, symName: __ZNSt3__112basic_stringIcNS_11char_traitsIcEENS_9allocatorIcEEEC2B7v160006Ev, symObjAddr: 0x4578, symBinAddr: 0x100010464, symSize: 0x54 }
  - { offsetInCU: 0xCD7B, offset: 0x297ED, size: 0x8, addend: 0x0, symName: __ZNSt3__112basic_stringIcNS_11char_traitsIcEENS_9allocatorIcEEE14__default_initB7v160006Ev, symObjAddr: 0x4618, symBinAddr: 0x1000104B8, symSize: 0x40 }
  - { offsetInCU: 0xCDA0, offset: 0x29812, size: 0x8, addend: 0x0, symName: __ZNSt3__16vectorIdNS_9allocatorIdEEE6assignIPKdLi0EEEvT_S7_, symObjAddr: 0x474C, symBinAddr: 0x1000104F8, symSize: 0x17C }
  - { offsetInCU: 0xCE7E, offset: 0x298F0, size: 0x8, addend: 0x0, symName: __ZNKSt3__113basic_istreamIcNS_11char_traitsIcEEE6sentrycvbB7v160006Ev, symObjAddr: 0x5914, symBinAddr: 0x100010978, symSize: 0x1C }
  - { offsetInCU: 0xCEA3, offset: 0x29915, size: 0x8, addend: 0x0, symName: __ZNSt3__112basic_stringIcNS_11char_traitsIcEENS_9allocatorIcEEE5clearB7v160006Ev, symObjAddr: 0x5930, symBinAddr: 0x100010994, symSize: 0x88 }
  - { offsetInCU: 0xCEC9, offset: 0x2993B, size: 0x8, addend: 0x0, symName: __ZNSt3__115basic_streambufIcNS_11char_traitsIcEEE6sbumpcB7v160006Ev, symObjAddr: 0x59B8, symBinAddr: 0x100010A1C, symSize: 0x78 }
  - { offsetInCU: 0xCEEE, offset: 0x29960, size: 0x8, addend: 0x0, symName: __ZNSt3__111char_traitsIcE12to_char_typeEi, symObjAddr: 0x5A30, symBinAddr: 0x100010A94, symSize: 0x18 }
  - { offsetInCU: 0xCF11, offset: 0x29983, size: 0x8, addend: 0x0, symName: __ZNSt3__111char_traitsIcE2eqEcc, symObjAddr: 0x5A48, symBinAddr: 0x100010AAC, symSize: 0x28 }
  - { offsetInCU: 0xCF42, offset: 0x299B4, size: 0x8, addend: 0x0, symName: __ZNKSt3__112basic_stringIcNS_11char_traitsIcEENS_9allocatorIcEEE4sizeB7v160006Ev, symObjAddr: 0x5A70, symBinAddr: 0x100010AD4, symSize: 0x54 }
  - { offsetInCU: 0xCF67, offset: 0x299D9, size: 0x8, addend: 0x0, symName: __ZNKSt3__112basic_stringIcNS_11char_traitsIcEENS_9allocatorIcEEE8max_sizeB7v160006Ev, symObjAddr: 0x5AC4, symBinAddr: 0x100010B28, symSize: 0xAC }
  - { offsetInCU: 0xCFB8, offset: 0x29A2A, size: 0x8, addend: 0x0, symName: __ZNSt3__18ios_base18__setstate_nothrowB7v160006Ej, symObjAddr: 0x5B70, symBinAddr: 0x100010BD4, symSize: 0x64 }
  - { offsetInCU: 0xCFEC, offset: 0x29A5E, size: 0x8, addend: 0x0, symName: __ZNKSt3__19basic_iosIcNS_11char_traitsIcEEE10exceptionsB7v160006Ev, symObjAddr: 0x5BD4, symBinAddr: 0x100010C38, symSize: 0x24 }
  - { offsetInCU: 0xD011, offset: 0x29A83, size: 0x8, addend: 0x0, symName: __ZNSt3__111char_traitsIcE6assignERcRKc, symObjAddr: 0x5C08, symBinAddr: 0x100010C6C, symSize: 0x24 }
  - { offsetInCU: 0xD042, offset: 0x29AB4, size: 0x8, addend: 0x0, symName: __ZNSt3__112basic_stringIcNS_11char_traitsIcEENS_9allocatorIcEEE15__set_long_sizeB7v160006Em, symObjAddr: 0x5C2C, symBinAddr: 0x100010C90, symSize: 0x38 }
  - { offsetInCU: 0xD076, offset: 0x29AE8, size: 0x8, addend: 0x0, symName: __ZNSt3__112basic_stringIcNS_11char_traitsIcEENS_9allocatorIcEEE16__set_short_sizeB7v160006Em, symObjAddr: 0x5C64, symBinAddr: 0x100010CC8, symSize: 0x78 }
  - { offsetInCU: 0xD0AA, offset: 0x29B1C, size: 0x8, addend: 0x0, symName: __ZNSt3__111char_traitsIcE11to_int_typeEc, symObjAddr: 0x5CDC, symBinAddr: 0x100010D40, symSize: 0x14 }
  - { offsetInCU: 0xD0CD, offset: 0x29B3F, size: 0x8, addend: 0x0, symName: __ZNKSt3__112basic_stringIcNS_11char_traitsIcEENS_9allocatorIcEEE15__get_long_sizeB7v160006Ev, symObjAddr: 0x5CF0, symBinAddr: 0x100010D54, symSize: 0x28 }
  - { offsetInCU: 0xD0F2, offset: 0x29B64, size: 0x8, addend: 0x0, symName: __ZNKSt3__112basic_stringIcNS_11char_traitsIcEENS_9allocatorIcEEE16__get_short_sizeB7v160006Ev, symObjAddr: 0x5D18, symBinAddr: 0x100010D7C, symSize: 0x34 }
  - { offsetInCU: 0xD121, offset: 0x29B93, size: 0x8, addend: 0x0, symName: __ZNSt3__116allocator_traitsINS_9allocatorIcEEE8max_sizeB7v160006IS2_vEEmRKS2_, symObjAddr: 0x5D4C, symBinAddr: 0x100010DB0, symSize: 0x24 }
  - { offsetInCU: 0xD14F, offset: 0x29BC1, size: 0x8, addend: 0x0, symName: __ZNKSt3__112basic_stringIcNS_11char_traitsIcEENS_9allocatorIcEEE7__allocB7v160006Ev, symObjAddr: 0x5D70, symBinAddr: 0x100010DD4, symSize: 0x24 }
  - { offsetInCU: 0xD174, offset: 0x29BE6, size: 0x8, addend: 0x0, symName: __ZNSt3__114numeric_limitsImE3maxB7v160006Ev, symObjAddr: 0x5D94, symBinAddr: 0x100010DF8, symSize: 0x14 }
  - { offsetInCU: 0xD188, offset: 0x29BFA, size: 0x8, addend: 0x0, symName: __ZNKSt3__19allocatorIcE8max_sizeB7v160006Ev, symObjAddr: 0x5DA8, symBinAddr: 0x100010E0C, symSize: 0x14 }
  - { offsetInCU: 0xD1AD, offset: 0x29C1F, size: 0x8, addend: 0x0, symName: __ZNKSt3__117__compressed_pairINS_12basic_stringIcNS_11char_traitsIcEENS_9allocatorIcEEE5__repES5_E6secondB7v160006Ev, symObjAddr: 0x5DBC, symBinAddr: 0x100010E20, symSize: 0x24 }
  - { offsetInCU: 0xD1D2, offset: 0x29C44, size: 0x8, addend: 0x0, symName: __ZNKSt3__122__compressed_pair_elemINS_9allocatorIcEELi1ELb1EE5__getB7v160006Ev, symObjAddr: 0x5DE0, symBinAddr: 0x100010E44, symSize: 0x14 }
  - { offsetInCU: 0xD1F7, offset: 0x29C69, size: 0x8, addend: 0x0, symName: __ZNSt3__123__libcpp_numeric_limitsImLb1EE3maxB7v160006Ev, symObjAddr: 0x5DF4, symBinAddr: 0x100010E58, symSize: 0x8 }
  - { offsetInCU: 0xD20B, offset: 0x29C7D, size: 0x8, addend: 0x0, symName: __ZNKSt3__18ios_base10exceptionsB7v160006Ev, symObjAddr: 0x5DFC, symBinAddr: 0x100010E60, symSize: 0x18 }
  - { offsetInCU: 0xD232, offset: 0x29CA4, size: 0x8, addend: 0x0, symName: __ZNSt3__19basic_iosIcNS_11char_traitsIcEEEC2B7v160006Ev, symObjAddr: 0x5E14, symBinAddr: 0x100010E78, symSize: 0x44 }
  - { offsetInCU: 0xD25B, offset: 0x29CCD, size: 0x8, addend: 0x0, symName: __ZNSt3__114basic_iostreamIcNS_11char_traitsIcEEEC2B7v160006EPNS_15basic_streambufIcS2_EE, symObjAddr: 0x5E58, symBinAddr: 0x100010EBC, symSize: 0xAC }
  - { offsetInCU: 0xD29F, offset: 0x29D11, size: 0x8, addend: 0x0, symName: __ZNSt3__115basic_stringbufIcNS_11char_traitsIcEENS_9allocatorIcEEEC1B7v160006ERKNS_12basic_stringIcS2_S4_EEj, symObjAddr: 0x5F04, symBinAddr: 0x100010F68, symSize: 0x3C }
  - { offsetInCU: 0xD2E4, offset: 0x29D56, size: 0x8, addend: 0x0, symName: __ZNSt3__18ios_baseC2B7v160006Ev, symObjAddr: 0x5F40, symBinAddr: 0x100010FA4, symSize: 0x24 }
  - { offsetInCU: 0xD30D, offset: 0x29D7F, size: 0x8, addend: 0x0, symName: __ZNSt3__113basic_istreamIcNS_11char_traitsIcEEEC2B7v160006EPNS_15basic_streambufIcS2_EE, symObjAddr: 0x5F64, symBinAddr: 0x100010FC8, symSize: 0x64 }
  - { offsetInCU: 0xD350, offset: 0x29DC2, size: 0x8, addend: 0x0, symName: __ZNSt3__113basic_ostreamIcNS_11char_traitsIcEEEC2B7v160006Ev, symObjAddr: 0x5FC8, symBinAddr: 0x10001102C, symSize: 0x34 }
  - { offsetInCU: 0xD385, offset: 0x29DF7, size: 0x8, addend: 0x0, symName: __ZNSt3__19basic_iosIcNS_11char_traitsIcEEE4initB7v160006EPNS_15basic_streambufIcS2_EE, symObjAddr: 0x5FFC, symBinAddr: 0x100011060, symSize: 0x44 }
  - { offsetInCU: 0xD3BA, offset: 0x29E2C, size: 0x8, addend: 0x0, symName: __ZNSt3__115basic_stringbufIcNS_11char_traitsIcEENS_9allocatorIcEEEC2B7v160006ERKNS_12basic_stringIcS2_S4_EEj, symObjAddr: 0x6040, symBinAddr: 0x1000110A4, symSize: 0xB4 }
  - { offsetInCU: 0xD3FF, offset: 0x29E71, size: 0x8, addend: 0x0, symName: __ZNKSt3__112basic_stringIcNS_11char_traitsIcEENS_9allocatorIcEEE13get_allocatorB7v160006Ev, symObjAddr: 0x60F4, symBinAddr: 0x100011158, symSize: 0x24 }
  - { offsetInCU: 0xD424, offset: 0x29E96, size: 0x8, addend: 0x0, symName: __ZNSt3__112basic_stringIcNS_11char_traitsIcEENS_9allocatorIcEEEC1B7v160006ERKS4_, symObjAddr: 0x6118, symBinAddr: 0x10001117C, symSize: 0x34 }
  - { offsetInCU: 0xD45C, offset: 0x29ECE, size: 0x8, addend: 0x0, symName: __ZNSt3__112basic_stringIcNS_11char_traitsIcEENS_9allocatorIcEEEC2B7v160006ERKS4_, symObjAddr: 0x614C, symBinAddr: 0x1000111B0, symSize: 0x50 }
  - { offsetInCU: 0xD494, offset: 0x29F06, size: 0x8, addend: 0x0, symName: __ZNSt3__117__compressed_pairINS_12basic_stringIcNS_11char_traitsIcEENS_9allocatorIcEEE5__repES5_EC1B7v160006INS_18__default_init_tagERKS5_EEOT_OT0_, symObjAddr: 0x619C, symBinAddr: 0x100011200, symSize: 0x3C }
  - { offsetInCU: 0xD4EB, offset: 0x29F5D, size: 0x8, addend: 0x0, symName: __ZNSt3__117__compressed_pairINS_12basic_stringIcNS_11char_traitsIcEENS_9allocatorIcEEE5__repES5_EC2B7v160006INS_18__default_init_tagERKS5_EEOT_OT0_, symObjAddr: 0x61D8, symBinAddr: 0x10001123C, symSize: 0x40 }
  - { offsetInCU: 0xD542, offset: 0x29FB4, size: 0x8, addend: 0x0, symName: __ZNSt3__122__compressed_pair_elemINS_9allocatorIcEELi1ELb1EEC2B7v160006IRKS2_vEEOT_, symObjAddr: 0x6218, symBinAddr: 0x10001127C, symSize: 0x18 }
  - { offsetInCU: 0xD583, offset: 0x29FF5, size: 0x8, addend: 0x0, symName: __ZNKSt3__19basic_iosIcNS_11char_traitsIcEEE4failB7v160006Ev, symObjAddr: 0x6230, symBinAddr: 0x100011294, symSize: 0x28 }
  - { offsetInCU: 0xD5A8, offset: 0x2A01A, size: 0x8, addend: 0x0, symName: __ZNKSt3__18ios_base4failB7v160006Ev, symObjAddr: 0x6258, symBinAddr: 0x1000112BC, symSize: 0x28 }
  - { offsetInCU: 0xD5CF, offset: 0x2A041, size: 0x8, addend: 0x0, symName: __ZNSt3__16vectorImNS_9allocatorImEEEC2B7v160006ESt16initializer_listImE, symObjAddr: 0x7164, symBinAddr: 0x1000112E4, symSize: 0x124 }
  - { offsetInCU: 0xD61F, offset: 0x2A091, size: 0x8, addend: 0x0, symName: __ZNKSt16initializer_listImE4sizeB7v160006Ev, symObjAddr: 0x7348, symBinAddr: 0x100011448, symSize: 0x18 }
  - { offsetInCU: 0xD644, offset: 0x2A0B6, size: 0x8, addend: 0x0, symName: __ZNSt3__16vectorImNS_9allocatorImEEE18__construct_at_endIPKmLi0EEEvT_S7_m, symObjAddr: 0x740C, symBinAddr: 0x100011460, symSize: 0x8C }
  - { offsetInCU: 0xD6B5, offset: 0x2A127, size: 0x8, addend: 0x0, symName: __ZNKSt16initializer_listImE5beginB7v160006Ev, symObjAddr: 0x7498, symBinAddr: 0x1000114EC, symSize: 0x18 }
  - { offsetInCU: 0xD6DA, offset: 0x2A14C, size: 0x8, addend: 0x0, symName: __ZNKSt16initializer_listImE3endB7v160006Ev, symObjAddr: 0x74B0, symBinAddr: 0x100011504, symSize: 0x20 }
  - { offsetInCU: 0xD6FF, offset: 0x2A171, size: 0x8, addend: 0x0, symName: __ZNSt3__128__exception_guard_exceptionsINS_6vectorImNS_9allocatorImEEE16__destroy_vectorEE10__completeB7v160006Ev, symObjAddr: 0x74D0, symBinAddr: 0x100011524, symSize: 0x1C }
  - { offsetInCU: 0xD724, offset: 0x2A196, size: 0x8, addend: 0x0, symName: __ZNSt3__128__exception_guard_exceptionsINS_6vectorImNS_9allocatorImEEE16__destroy_vectorEED1B7v160006Ev, symObjAddr: 0x74EC, symBinAddr: 0x100011540, symSize: 0x2C }
  - { offsetInCU: 0xD74D, offset: 0x2A1BF, size: 0x8, addend: 0x0, symName: __ZNSt3__128__exception_guard_exceptionsINS_6vectorImNS_9allocatorImEEE16__destroy_vectorEEC1B7v160006ES5_, symObjAddr: 0x75E0, symBinAddr: 0x10001156C, symSize: 0x34 }
  - { offsetInCU: 0xD784, offset: 0x2A1F6, size: 0x8, addend: 0x0, symName: __ZNSt3__128__exception_guard_exceptionsINS_6vectorImNS_9allocatorImEEE16__destroy_vectorEEC2B7v160006ES5_, symObjAddr: 0x7614, symBinAddr: 0x1000115A0, symSize: 0x24 }
  - { offsetInCU: 0xD7ED, offset: 0x2A25F, size: 0x8, addend: 0x0, symName: __ZNKSt3__114__copy_trivialclB7v160006IKmmLi0EEENS_4pairIPT_PT0_EES5_S5_S7_, symObjAddr: 0x7D2C, symBinAddr: 0x1000117D8, symSize: 0x48 }
  - { offsetInCU: 0xD872, offset: 0x2A2E4, size: 0x8, addend: 0x0, symName: __ZNSt3__14pairIPKmS2_EC1B7v160006IS2_S2_LPv0EEEOT_OT0_, symObjAddr: 0x7E94, symBinAddr: 0x1000118E0, symSize: 0x3C }
  - { offsetInCU: 0xD8CF, offset: 0x2A341, size: 0x8, addend: 0x0, symName: __ZNSt3__14pairIPKmS2_EC2B7v160006IS2_S2_LPv0EEEOT_OT0_, symObjAddr: 0x7ED0, symBinAddr: 0x10001191C, symSize: 0x34 }
  - { offsetInCU: 0xD92C, offset: 0x2A39E, size: 0x8, addend: 0x0, symName: __ZNSt3__118__unwrap_iter_implIPKmLb1EE8__unwrapB7v160006ES2_, symObjAddr: 0x7F04, symBinAddr: 0x100011950, symSize: 0x24 }
  - { offsetInCU: 0xD959, offset: 0x2A3CB, size: 0x8, addend: 0x0, symName: __ZNSt3__14pairIPKmPmEC1B7v160006IRS2_S3_LPv0EEEOT_OT0_, symObjAddr: 0x7FF8, symBinAddr: 0x100011A44, symSize: 0x3C }
  - { offsetInCU: 0xD9B6, offset: 0x2A428, size: 0x8, addend: 0x0, symName: __ZNSt3__14pairIPKmPmEC2B7v160006IRS2_S3_LPv0EEEOT_OT0_, symObjAddr: 0x8034, symBinAddr: 0x100011A80, symSize: 0x34 }
  - { offsetInCU: 0xDA13, offset: 0x2A485, size: 0x8, addend: 0x0, symName: __ZNSt3__14pairIPKmPmEC1B7v160006IS2_S3_LPv0EEEOT_OT0_, symObjAddr: 0x808C, symBinAddr: 0x100011AB4, symSize: 0x3C }
  - { offsetInCU: 0xDA70, offset: 0x2A4E2, size: 0x8, addend: 0x0, symName: __ZNSt3__14pairIPKmPmEC2B7v160006IS2_S3_LPv0EEEOT_OT0_, symObjAddr: 0x80C8, symBinAddr: 0x100011AF0, symSize: 0x34 }
  - { offsetInCU: 0xDACD, offset: 0x2A53F, size: 0x8, addend: 0x0, symName: __ZNSt3__118__unwrap_iter_implIPKmLb1EE8__rewrapB7v160006ES2_S2_, symObjAddr: 0x8138, symBinAddr: 0x100011B60, symSize: 0x50 }
  - { offsetInCU: 0xDAFE, offset: 0x2A570, size: 0x8, addend: 0x0, symName: __ZNSt3__128__exception_guard_exceptionsINS_6vectorImNS_9allocatorImEEE16__destroy_vectorEED2B7v160006Ev, symObjAddr: 0x81F8, symBinAddr: 0x100011BB0, symSize: 0x50 }
  - { offsetInCU: 0xDB27, offset: 0x2A599, size: 0x8, addend: 0x0, symName: __ZNSt3__16vectorIdNS_9allocatorIdEEE13__move_assignERS3_NS_17integral_constantIbLb1EEE, symObjAddr: 0x8580, symBinAddr: 0x100011C00, symSize: 0xAC }
  - { offsetInCU: 0xDB67, offset: 0x2A5D9, size: 0x8, addend: 0x0, symName: __ZNSt3__16vectorIdNS_9allocatorIdEEE19__move_assign_allocB7v160006ERS3_, symObjAddr: 0x862C, symBinAddr: 0x100011CAC, symSize: 0x2C }
  - { offsetInCU: 0xDB9B, offset: 0x2A60D, size: 0x8, addend: 0x0, symName: __ZNSt3__16vectorIdNS_9allocatorIdEEE19__move_assign_allocB7v160006ERS3_NS_17integral_constantIbLb1EEE, symObjAddr: 0x866C, symBinAddr: 0x100011CD8, symSize: 0x38 }
...
